

Microchip MPLAB XC8 Assembler V2.10 build 88905656 
                                                                                               Sat Jul 04 00:34:20 2020

Microchip MPLAB XC8 C Compiler v2.10 (Free license) build 20190730164152 Og1 
     1                           	processor	18F4550
     2                           	fnconf	rparam,??,?,0
     3                           	opt	pw 120
     4                           	opt	flic
     5                           	psect	smallconst,global,reloc=2,class=SMALLCONST,delta=1,noexec
     6                           	psect	cinit,global,reloc=2,class=CODE,delta=1
     7                           	psect	bssBANK0,global,class=BANK0,space=1,delta=1,lowdata,noexec
     8                           	psect	cstackBANK0,global,class=BANK0,space=1,delta=1,noexec
     9                           	psect	cstackCOMRAM,global,class=COMRAM,space=1,delta=1,noexec
    10                           	psect	text0,global,reloc=2,class=CODE,delta=1
    11                           	psect	text1,global,reloc=2,class=CODE,delta=1,group=2
    12                           	psect	text2,global,reloc=2,class=CODE,delta=1
    13                           	psect	text3,global,reloc=2,class=CODE,delta=1
    14                           	psect	text4,global,reloc=2,class=CODE,delta=1
    15                           	psect	text5,global,reloc=2,class=CODE,delta=1
    16                           	psect	text6,global,reloc=2,class=CODE,delta=1,group=2
    17                           	psect	text7,global,reloc=2,class=CODE,delta=1,group=2
    18                           	psect	text8,global,reloc=2,class=CODE,delta=1,group=2
    19                           	psect	text9,global,reloc=2,class=CODE,delta=1,group=2
    20                           	psect	text10,global,reloc=2,class=CODE,delta=1,group=2
    21                           	psect	text11,global,reloc=2,class=CODE,delta=1,group=1
    22                           	psect	text12,global,reloc=2,class=CODE,delta=1,group=1
    23                           	psect	text13,global,reloc=2,class=CODE,delta=1,group=1
    24                           	psect	text14,global,reloc=2,class=CODE,delta=1,group=1
    25                           	psect	text15,global,reloc=2,class=CODE,delta=1,group=1
    26                           	psect	text16,global,reloc=2,class=CODE,delta=1,group=1
    27                           	psect	text17,global,reloc=2,class=CODE,delta=1,group=1
    28                           	psect	text18,global,reloc=2,class=CODE,delta=1,group=1
    29                           	psect	text19,global,reloc=2,class=CODE,delta=1
    30                           	psect	text20,global,reloc=2,class=CODE,delta=1
    31                           	psect	text21,global,reloc=2,class=CODE,delta=1
    32                           	psect	text22,global,reloc=2,class=CODE,delta=1
    33                           	psect	text23,global,reloc=2,class=CODE,delta=1
    34                           	psect	text24,global,reloc=2,class=CODE,delta=1
    35                           	psect	text25,global,reloc=2,class=CODE,delta=1
    36                           	psect	text26,global,reloc=2,class=CODE,delta=1
    37                           	psect	text27,global,reloc=2,class=CODE,delta=1
    38                           	psect	intsave_regs,global,class=BIGRAM,space=1,delta=1,noexec
    39                           	psect	rparam,global,class=COMRAM,space=1,delta=1,noexec
    40  0000                     
    41                           ; Version 2.10
    42                           ; Generated 31/07/2019 GMT
    43                           ; 
    44                           ; Copyright © 2019, Microchip Technology Inc. and its subsidiaries ("Microchip")
    45                           ; All rights reserved.
    46                           ; 
    47                           ; This software is developed by Microchip Technology Inc. and its subsidiaries ("Microch
      +                          ip").
    48                           ; 
    49                           ; Redistribution and use in source and binary forms, with or without modification, are
    50                           ; permitted provided that the following conditions are met:
    51                           ; 
    52                           ;     1. Redistributions of source code must retain the above copyright notice, this lis
      +                          t of
    53                           ;        conditions and the following disclaimer.
    54                           ; 
    55                           ;     2. Redistributions in binary form must reproduce the above copyright notice, this 
      +                          list
    56                           ;        of conditions and the following disclaimer in the documentation and/or other
    57                           ;        materials provided with the distribution.
    58                           ; 
    59                           ;     3. Microchip's name may not be used to endorse or promote products derived from th
      +                          is
    60                           ;        software without specific prior written permission.
    61                           ; 
    62                           ; THIS SOFTWARE IS PROVIDED BY MICROCHIP "AS IS" AND ANY EXPRESS OR IMPLIED WARRANTIES,
    63                           ; INCLUDING, BUT NOT LIMITED TO, THE IMPLIED WARRANTIES OF MERCHANTABILITY AND FITNESS F
      +                          OR
    64                           ; PURPOSE ARE DISCLAIMED.  IN NO EVENT SHALL MICROCHIP BE LIABLE FOR ANY DIRECT, INDIREC
      +                          T,
    65                           ; INCIDENTAL, SPECIAL, EXEMPLARY, OR CONSEQUENTIAL DAMAGES (INCLUDING BUT NOT LIMITED TO
    66                           ; PROCUREMENT OF SUBSTITUTE GOODS OR SERVICES; LOSS OF USE, DATA OR PROFITS; OR BUSINESS
    67                           ; INTERRUPTION) HOWSOEVER CAUSED AND ON ANY THEORY OF LIABILITY, WHETHER IN CONTRACT, ST
      +                          RICT
    68                           ; LIABILITY, OR TORT (INCLUDING NEGLIGENCE OR OTHERWISE) ARISING IN ANY WAY OUT OF THE U
      +                          SE OF
    69                           ; THIS SOFTWARE, EVEN IF ADVISED OF THE POSSIBILITY OF SUCH DAMAGE.
    70                           ; 
    71                           ; 
    72                           ; Code-generator required, PIC18F4550 Definitions
    73                           ; 
    74                           ; SFR Addresses
    75  0000                     _TMR0	set	4054
    76  0000                     _LATB	set	3978
    77  0000                     _TRISD	set	3989
    78  0000                     _TRISB	set	3987
    79  0000                     _TMR2	set	4044
    80  0000                     _T2CON	set	4042
    81  0000                     _CCP1CON	set	4029
    82  0000                     _CCPR1L	set	4030
    83  0000                     _PR2	set	4043
    84  0000                     _ADCON0bits	set	4034
    85  0000                     _ADCON2bits	set	4032
    86  0000                     _ADCON0	set	4034
    87  0000                     _ADRESL	set	4035
    88  0000                     _ADRESH	set	4036
    89  0000                     _ADCON2	set	4032
    90  0000                     _ADCON1	set	4033
    91  0000                     _TRISA	set	3986
    92  0000                     _T0CON	set	4053
    93  0000                     _LATD1	set	31841
    94  0000                     _LATD0	set	31840
    95  0000                     _TMR2ON	set	32338
    96  0000                     _TRISC2	set	31906
    97  0000                     _GO	set	32273
    98  0000                     _ADON	set	32272
    99  0000                     _TMR0IF	set	32658
   100                           
   101                           	psect	smallconst
   102  000800                     __psmallconst:
   103                           	opt callstack 0
   104  000800  00                 	db	0
   105  000801                     STR_1:
   106  000801  25                 	db	37
   107  000802  64                 	db	100	;'d'
   108  000803  00                 	db	0
   109  0000                     
   110                           ; #config settings
   111  000804  00                 	db	0	; dummy byte at the end
   112  0000                     
   113                           	psect	cinit
   114  002864                     __pcinit:
   115                           	opt callstack 0
   116  002864                     start_initialization:
   117                           	opt callstack 0
   118  002864                     __initialization:
   119                           	opt callstack 0
   120                           
   121                           ; Clear objects allocated to BANK0 (40 bytes)
   122  002864  EE00  F0BE         	lfsr	0,__pbssBANK0
   123  002868  0E28               	movlw	40
   124  00286A                     clear_0:
   125  00286A  6AEE               	clrf	postinc0,c
   126  00286C  06E8               	decf	wreg,f,c
   127  00286E  E1FD               	bnz	clear_0
   128  002870                     end_of_initialization:
   129                           	opt callstack 0
   130  002870                     __end_of__initialization:
   131                           	opt callstack 0
   132  002870  0E00               	movlw	low (__Lsmallconst shr (0+16))
   133  002872  6EF8               	movwf	tblptru,c
   134  002874  0E08               	movlw	high __Lsmallconst
   135  002876  6EF7               	movwf	tblptrh,c
   136  002878  0100               	movlb	0
   137  00287A  EF63  F006         	goto	_main	;jump to C main() function
   138                           
   139                           	psect	bssBANK0
   140  0000BE                     __pbssBANK0:
   141                           	opt callstack 0
   142  0000BE                     _nout:
   143                           	opt callstack 0
   144  0000BE                     	ds	2
   145  0000C0                     _width:
   146                           	opt callstack 0
   147  0000C0                     	ds	2
   148  0000C2                     _prec:
   149                           	opt callstack 0
   150  0000C2                     	ds	2
   151  0000C4                     _flags:
   152                           	opt callstack 0
   153  0000C4                     	ds	2
   154  0000C6                     _dbuf:
   155                           	opt callstack 0
   156  0000C6                     	ds	32
   157                           
   158                           	psect	cstackBANK0
   159  000060                     __pcstackBANK0:
   160                           	opt callstack 0
   161  000060                     	ds	2
   162  000062                     sprintf@ap:
   163                           	opt callstack 0
   164                           
   165                           ; 2 bytes @ 0x2
   166  000062                     	ds	2
   167  000064                     sprintf@f:
   168                           	opt callstack 0
   169                           
   170                           ; 6 bytes @ 0x4
   171  000064                     	ds	12
   172  000070                     main@str:
   173                           	opt callstack 0
   174                           
   175                           ; 20 bytes @ 0x10
   176  000070                     	ds	20
   177  000084                     main@Kp:
   178                           	opt callstack 0
   179                           
   180                           ; 4 bytes @ 0x24
   181  000084                     	ds	4
   182  000088                     main@Ki:
   183                           	opt callstack 0
   184                           
   185                           ; 4 bytes @ 0x28
   186  000088                     	ds	4
   187  00008C                     main@Kd:
   188                           	opt callstack 0
   189                           
   190                           ; 4 bytes @ 0x2C
   191  00008C                     	ds	4
   192  000090                     _main$994:
   193                           	opt callstack 0
   194                           
   195                           ; 4 bytes @ 0x30
   196  000090                     	ds	4
   197  000094                     _main$995:
   198                           	opt callstack 0
   199                           
   200                           ; 4 bytes @ 0x34
   201  000094                     	ds	4
   202  000098                     main@offset:
   203                           	opt callstack 0
   204                           
   205                           ; 2 bytes @ 0x38
   206  000098                     	ds	2
   207  00009A                     main@PProporcional:
   208                           	opt callstack 0
   209                           
   210                           ; 2 bytes @ 0x3A
   211  00009A                     	ds	2
   212  00009C                     main@PIntegral:
   213                           	opt callstack 0
   214                           
   215                           ; 2 bytes @ 0x3C
   216  00009C                     	ds	2
   217  00009E                     main@PDerivativo:
   218                           	opt callstack 0
   219                           
   220                           ; 2 bytes @ 0x3E
   221  00009E                     	ds	2
   222  0000A0                     main@pE:
   223                           	opt callstack 0
   224                           
   225                           ; 2 bytes @ 0x40
   226  0000A0                     	ds	2
   227  0000A2                     main@Error_0:
   228                           	opt callstack 0
   229                           
   230                           ; 4 bytes @ 0x42
   231  0000A2                     	ds	4
   232  0000A6                     main@T:
   233                           	opt callstack 0
   234                           
   235                           ; 4 bytes @ 0x46
   236  0000A6                     	ds	4
   237  0000AA                     main@Proporcional:
   238                           	opt callstack 0
   239                           
   240                           ; 4 bytes @ 0x4A
   241  0000AA                     	ds	4
   242  0000AE                     main@Derivativo:
   243                           	opt callstack 0
   244                           
   245                           ; 4 bytes @ 0x4E
   246  0000AE                     	ds	4
   247  0000B2                     main@Control:
   248                           	opt callstack 0
   249                           
   250                           ; 2 bytes @ 0x52
   251  0000B2                     	ds	2
   252  0000B4                     main@Integral:
   253                           	opt callstack 0
   254                           
   255                           ; 4 bytes @ 0x54
   256  0000B4                     	ds	4
   257  0000B8                     main@input:
   258                           	opt callstack 0
   259                           
   260                           ; 2 bytes @ 0x58
   261  0000B8                     	ds	2
   262  0000BA                     main@Error:
   263                           	opt callstack 0
   264                           
   265                           ; 4 bytes @ 0x5A
   266  0000BA                     	ds	4
   267                           
   268                           	psect	cstackCOMRAM
   269  000001                     __pcstackCOMRAM:
   270                           	opt callstack 0
   271  000001                     ?_strlen:
   272                           	opt callstack 0
   273  000001                     ?_ADC_Read:
   274                           	opt callstack 0
   275  000001                     ?___flmul:
   276                           	opt callstack 0
   277  000001                     ?___xxtofl:
   278                           	opt callstack 0
   279  000001                     ?___aodiv:
   280                           	opt callstack 0
   281  000001                     ?___aomod:
   282                           	opt callstack 0
   283  000001                     ADC_Read@channel:
   284                           	opt callstack 0
   285  000001                     PWM@output:
   286                           	opt callstack 0
   287  000001                     MSdelay@val:
   288                           	opt callstack 0
   289  000001                     fputc@c:
   290                           	opt callstack 0
   291  000001                     strlen@s:
   292                           	opt callstack 0
   293  000001                     ___flmul@b:
   294                           	opt callstack 0
   295  000001                     ___xxtofl@val:
   296                           	opt callstack 0
   297  000001                     ___aodiv@dividend:
   298                           	opt callstack 0
   299  000001                     ___aomod@dividend:
   300                           	opt callstack 0
   301                           
   302                           ; 8 bytes @ 0x0
   303  000001                     	ds	2
   304  000003                     ??_ADC_Read:
   305  000003                     ??_PWM:
   306  000003                     MSdelay@i:
   307                           	opt callstack 0
   308  000003                     fputc@fp:
   309                           	opt callstack 0
   310  000003                     strlen@a:
   311                           	opt callstack 0
   312                           
   313                           ; 2 bytes @ 0x2
   314  000003                     	ds	2
   315  000005                     ??_fputc:
   316  000005                     ??___xxtofl:
   317  000005                     LCD_Command@cmd:
   318                           	opt callstack 0
   319  000005                     LCD_Char@dat:
   320                           	opt callstack 0
   321  000005                     ___flmul@a:
   322                           	opt callstack 0
   323                           
   324                           ; 4 bytes @ 0x4
   325  000005                     	ds	1
   326  000006                     LCD_String@msg:
   327                           	opt callstack 0
   328                           
   329                           ; 2 bytes @ 0x5
   330  000006                     	ds	1
   331  000007                     ADC_Read@digital:
   332                           	opt callstack 0
   333                           
   334                           ; 2 bytes @ 0x6
   335  000007                     	ds	1
   336  000008                     LCD_String_xy@pos:
   337                           	opt callstack 0
   338                           
   339                           ; 1 bytes @ 0x7
   340  000008                     	ds	1
   341  000009                     ??___flmul:
   342  000009                     ___xxtofl@sign:
   343                           	opt callstack 0
   344  000009                     LCD_String_xy@msg:
   345                           	opt callstack 0
   346  000009                     ___aodiv@divisor:
   347                           	opt callstack 0
   348  000009                     ___aomod@divisor:
   349                           	opt callstack 0
   350                           
   351                           ; 8 bytes @ 0x8
   352  000009                     	ds	1
   353  00000A                     ___xxtofl@exp:
   354                           	opt callstack 0
   355  00000A                     fputs@s:
   356                           	opt callstack 0
   357                           
   358                           ; 2 bytes @ 0x9
   359  00000A                     	ds	1
   360  00000B                     LCD_String_xy@row:
   361                           	opt callstack 0
   362  00000B                     ___xxtofl@arg:
   363                           	opt callstack 0
   364                           
   365                           ; 4 bytes @ 0xA
   366  00000B                     	ds	1
   367  00000C                     LCD_String_xy@location:
   368                           	opt callstack 0
   369  00000C                     fputs@fp:
   370                           	opt callstack 0
   371                           
   372                           ; 2 bytes @ 0xB
   373  00000C                     	ds	1
   374  00000D                     ___flmul@sign:
   375                           	opt callstack 0
   376                           
   377                           ; 1 bytes @ 0xC
   378  00000D                     	ds	1
   379  00000E                     fputs@c:
   380                           	opt callstack 0
   381  00000E                     ___flmul@grs:
   382                           	opt callstack 0
   383                           
   384                           ; 4 bytes @ 0xD
   385  00000E                     	ds	1
   386  00000F                     fputs@i:
   387                           	opt callstack 0
   388                           
   389                           ; 2 bytes @ 0xE
   390  00000F                     	ds	2
   391  000011                     ?_pad:
   392                           	opt callstack 0
   393  000011                     ___aodiv@counter:
   394                           	opt callstack 0
   395  000011                     ___aomod@counter:
   396                           	opt callstack 0
   397  000011                     pad@fp:
   398                           	opt callstack 0
   399                           
   400                           ; 2 bytes @ 0x10
   401  000011                     	ds	1
   402  000012                     ___aodiv@sign:
   403                           	opt callstack 0
   404  000012                     ___aomod@sign:
   405                           	opt callstack 0
   406  000012                     ___flmul@aexp:
   407                           	opt callstack 0
   408                           
   409                           ; 1 bytes @ 0x11
   410  000012                     	ds	1
   411  000013                     ?_abs:
   412                           	opt callstack 0
   413  000013                     ___flmul@bexp:
   414                           	opt callstack 0
   415  000013                     pad@buf:
   416                           	opt callstack 0
   417  000013                     abs@a:
   418                           	opt callstack 0
   419  000013                     ___aodiv@quotient:
   420                           	opt callstack 0
   421                           
   422                           ; 8 bytes @ 0x12
   423  000013                     	ds	1
   424  000014                     ___flmul@prod:
   425                           	opt callstack 0
   426                           
   427                           ; 4 bytes @ 0x13
   428  000014                     	ds	1
   429  000015                     ??_abs:
   430  000015                     pad@p:
   431                           	opt callstack 0
   432                           
   433                           ; 2 bytes @ 0x14
   434  000015                     	ds	2
   435  000017                     ??_pad:
   436                           
   437                           ; 1 bytes @ 0x16
   438  000017                     	ds	1
   439  000018                     pad@i:
   440                           	opt callstack 0
   441  000018                     ___flmul@temp:
   442                           	opt callstack 0
   443                           
   444                           ; 2 bytes @ 0x17
   445  000018                     	ds	2
   446  00001A                     ?___fladd:
   447                           	opt callstack 0
   448  00001A                     pad@w:
   449                           	opt callstack 0
   450  00001A                     ___fladd@b:
   451                           	opt callstack 0
   452                           
   453                           ; 4 bytes @ 0x19
   454  00001A                     	ds	2
   455  00001C                     ?_dtoa:
   456                           	opt callstack 0
   457  00001C                     dtoa@fp:
   458                           	opt callstack 0
   459                           
   460                           ; 2 bytes @ 0x1B
   461  00001C                     	ds	2
   462  00001E                     ___fladd@a:
   463                           	opt callstack 0
   464  00001E                     dtoa@d:
   465                           	opt callstack 0
   466                           
   467                           ; 8 bytes @ 0x1D
   468  00001E                     	ds	4
   469  000022                     ??___fladd:
   470                           
   471                           ; 1 bytes @ 0x21
   472  000022                     	ds	4
   473  000026                     ??_dtoa:
   474  000026                     ___fladd@signs:
   475                           	opt callstack 0
   476                           
   477                           ; 1 bytes @ 0x25
   478  000026                     	ds	1
   479  000027                     ___fladd@aexp:
   480                           	opt callstack 0
   481                           
   482                           ; 1 bytes @ 0x26
   483  000027                     	ds	1
   484  000028                     ___fladd@bexp:
   485                           	opt callstack 0
   486                           
   487                           ; 1 bytes @ 0x27
   488  000028                     	ds	1
   489  000029                     ___fladd@grs:
   490                           	opt callstack 0
   491                           
   492                           ; 1 bytes @ 0x28
   493  000029                     	ds	1
   494  00002A                     ?___flsub:
   495                           	opt callstack 0
   496  00002A                     ?___fltol:
   497                           	opt callstack 0
   498  00002A                     ___fltol@f1:
   499                           	opt callstack 0
   500  00002A                     ___flsub@b:
   501                           	opt callstack 0
   502                           
   503                           ; 4 bytes @ 0x29
   504  00002A                     	ds	4
   505  00002E                     ??___fltol:
   506  00002E                     _dtoa$288:
   507                           	opt callstack 0
   508  00002E                     ___flsub@a:
   509                           	opt callstack 0
   510                           
   511                           ; 4 bytes @ 0x2D
   512  00002E                     	ds	2
   513  000030                     dtoa@p:
   514                           	opt callstack 0
   515                           
   516                           ; 2 bytes @ 0x2F
   517  000030                     	ds	2
   518  000032                     ?___fldiv:
   519                           	opt callstack 0
   520  000032                     ___fltol@sign1:
   521                           	opt callstack 0
   522  000032                     dtoa@w:
   523                           	opt callstack 0
   524  000032                     ___fldiv@b:
   525                           	opt callstack 0
   526                           
   527                           ; 4 bytes @ 0x31
   528  000032                     	ds	1
   529  000033                     ___fltol@exp1:
   530                           	opt callstack 0
   531                           
   532                           ; 1 bytes @ 0x32
   533  000033                     	ds	1
   534  000034                     dtoa@s:
   535                           	opt callstack 0
   536                           
   537                           ; 2 bytes @ 0x33
   538  000034                     	ds	2
   539  000036                     ___fldiv@a:
   540                           	opt callstack 0
   541  000036                     dtoa@n:
   542                           	opt callstack 0
   543                           
   544                           ; 8 bytes @ 0x35
   545  000036                     	ds	4
   546  00003A                     ??___fldiv:
   547                           
   548                           ; 1 bytes @ 0x39
   549  00003A                     	ds	4
   550  00003E                     dtoa@i:
   551                           	opt callstack 0
   552  00003E                     ___fldiv@rem:
   553                           	opt callstack 0
   554                           
   555                           ; 4 bytes @ 0x3D
   556  00003E                     	ds	2
   557  000040                     ?_vfpfcnvrt:
   558                           	opt callstack 0
   559  000040                     vfpfcnvrt@fp:
   560                           	opt callstack 0
   561                           
   562                           ; 2 bytes @ 0x3F
   563  000040                     	ds	2
   564  000042                     ___fldiv@sign:
   565                           	opt callstack 0
   566  000042                     vfpfcnvrt@fmt:
   567                           	opt callstack 0
   568                           
   569                           ; 2 bytes @ 0x41
   570  000042                     	ds	1
   571  000043                     ___fldiv@new_exp:
   572                           	opt callstack 0
   573                           
   574                           ; 2 bytes @ 0x42
   575  000043                     	ds	1
   576  000044                     vfpfcnvrt@ap:
   577                           	opt callstack 0
   578                           
   579                           ; 2 bytes @ 0x43
   580  000044                     	ds	1
   581  000045                     ___fldiv@grs:
   582                           	opt callstack 0
   583                           
   584                           ; 4 bytes @ 0x44
   585  000045                     	ds	1
   586  000046                     ??_vfpfcnvrt:
   587                           
   588                           ; 1 bytes @ 0x45
   589  000046                     	ds	2
   590  000048                     vfpfcnvrt@ll:
   591                           	opt callstack 0
   592                           
   593                           ; 8 bytes @ 0x47
   594  000048                     	ds	1
   595  000049                     ___fldiv@bexp:
   596                           	opt callstack 0
   597                           
   598                           ; 1 bytes @ 0x48
   599  000049                     	ds	1
   600  00004A                     ___fldiv@aexp:
   601                           	opt callstack 0
   602                           
   603                           ; 1 bytes @ 0x49
   604  00004A                     	ds	6
   605  000050                     ?_vfprintf:
   606                           	opt callstack 0
   607  000050                     vfprintf@fp:
   608                           	opt callstack 0
   609                           
   610                           ; 2 bytes @ 0x4F
   611  000050                     	ds	2
   612  000052                     vfprintf@fmt:
   613                           	opt callstack 0
   614                           
   615                           ; 2 bytes @ 0x51
   616  000052                     	ds	2
   617  000054                     vfprintf@ap:
   618                           	opt callstack 0
   619                           
   620                           ; 2 bytes @ 0x53
   621  000054                     	ds	2
   622  000056                     vfprintf@cfmt:
   623                           	opt callstack 0
   624                           
   625                           ; 2 bytes @ 0x55
   626  000056                     	ds	2
   627  000058                     ?_sprintf:
   628                           	opt callstack 0
   629  000058                     sprintf@s:
   630                           	opt callstack 0
   631                           
   632                           ; 2 bytes @ 0x57
   633  000058                     	ds	2
   634  00005A                     sprintf@fmt:
   635                           	opt callstack 0
   636                           
   637                           ; 2 bytes @ 0x59
   638  00005A                     	ds	4
   639  00005E                     ??_main:
   640                           
   641                           ; 1 bytes @ 0x5D
   642  00005E                     	ds	2
   643                           
   644 ;;
   645 ;;Main: autosize = 0, tempsize = 2, incstack = 0, save=0
   646 ;;
   647 ;; *************** function _main *****************
   648 ;; Defined at:
   649 ;;		line 145 in file "main_PID_BUCK.c"
   650 ;; Parameters:    Size  Location     Type
   651 ;;		None
   652 ;; Auto vars:     Size  Location     Type
   653 ;;  str            20   16[BANK0 ] unsigned char [20]
   654 ;;  pE              2   64[BANK0 ] int 
   655 ;;  PDerivativo     2   62[BANK0 ] int 
   656 ;;  PIntegral       2   60[BANK0 ] int 
   657 ;;  PProporciona    2   58[BANK0 ] int 
   658 ;;  pinput          2    0        int 
   659 ;;  Error           4   90[BANK0 ] float 
   660 ;;  Integral        4   84[BANK0 ] float 
   661 ;;  Derivativo      4   78[BANK0 ] float 
   662 ;;  Proporcional    4   74[BANK0 ] float 
   663 ;;  T               4   70[BANK0 ] float 
   664 ;;  Error_0         4   66[BANK0 ] float 
   665 ;;  Kd              4   44[BANK0 ] float 
   666 ;;  Ki              4   40[BANK0 ] float 
   667 ;;  Kp              4   36[BANK0 ] float 
   668 ;;  MaxIntegralE    4    0        float 
   669 ;;  input           2   88[BANK0 ] int 
   670 ;;  Control         2   82[BANK0 ] int 
   671 ;;  offset          2   56[BANK0 ] int 
   672 ;; Return value:  Size  Location     Type
   673 ;;                  1    wreg      void 
   674 ;; Registers used:
   675 ;;		wreg, fsr1l, fsr1h, fsr2l, fsr2h, status,2, status,0, tblptrl, tblptrh, tblptru, prodl, prodh, cstack
   676 ;; Tracked objects:
   677 ;;		On entry : 0/0
   678 ;;		On exit  : 0/0
   679 ;;		Unchanged: 0/0
   680 ;; Data sizes:     COMRAM   BANK0   BANK1   BANK2   BANK3   BANK4   BANK5   BANK6   BANK7
   681 ;;      Params:         0       0       0       0       0       0       0       0       0
   682 ;;      Locals:         0      84       0       0       0       0       0       0       0
   683 ;;      Temps:          2       0       0       0       0       0       0       0       0
   684 ;;      Totals:         2      84       0       0       0       0       0       0       0
   685 ;;Total ram usage:       86 bytes
   686 ;; Hardware stack levels required when called:    8
   687 ;; This function calls:
   688 ;;		_ADC_Init
   689 ;;		_ADC_Read
   690 ;;		_LCD_Init
   691 ;;		_LCD_String_xy
   692 ;;		_PWM
   693 ;;		___fladd
   694 ;;		___fldiv
   695 ;;		___flmul
   696 ;;		___flsub
   697 ;;		___fltol
   698 ;;		___xxtofl
   699 ;;		_sprintf
   700 ;; This function is called by:
   701 ;;		Startup code after reset
   702 ;; This function uses a non-reentrant model
   703 ;;
   704                           
   705                           	psect	text0
   706  000CC6                     __ptext0:
   707                           	opt callstack 0
   708  000CC6                     _main:
   709                           	opt callstack 23
   710  000CC6                     
   711                           ;main_PID_BUCK.c: 147:     LCD_Init();
   712  000CC6  ECFF  F013         	call	_LCD_Init	;wreg free
   713  000CCA                     
   714                           ;main_PID_BUCK.c: 148:     ADC_Init();
   715  000CCA  EC3F  F014         	call	_ADC_Init	;wreg free
   716  000CCE                     
   717                           ;main_PID_BUCK.c: 151:     float Kp=.0167;
   718  000CCE  0E70               	movlw	112
   719  000CD0  0100               	movlb	0	; () banked
   720  000CD2  6F84               	movwf	main@Kp& (0+255),b
   721  000CD4  0ECE               	movlw	206
   722  000CD6  6F85               	movwf	(main@Kp+1)& (0+255),b
   723  000CD8  0E88               	movlw	136
   724  000CDA  6F86               	movwf	(main@Kp+2)& (0+255),b
   725  000CDC  0E3C               	movlw	60
   726  000CDE  6F87               	movwf	(main@Kp+3)& (0+255),b
   727  000CE0                     
   728                           ; BSR set to: 0
   729                           ;main_PID_BUCK.c: 152:     float Ki=0.1;
   730  000CE0  0ECD               	movlw	205
   731  000CE2  6F88               	movwf	main@Ki& (0+255),b
   732  000CE4  0ECC               	movlw	204
   733  000CE6  6F89               	movwf	(main@Ki+1)& (0+255),b
   734  000CE8  0ECC               	movlw	204
   735  000CEA  6F8A               	movwf	(main@Ki+2)& (0+255),b
   736  000CEC  0E3D               	movlw	61
   737  000CEE  6F8B               	movwf	(main@Ki+3)& (0+255),b
   738  000CF0                     
   739                           ; BSR set to: 0
   740                           ;main_PID_BUCK.c: 153:     float Kd=.00001;
   741  000CF0  0EAC               	movlw	172
   742  000CF2  6F8C               	movwf	main@Kd& (0+255),b
   743  000CF4  0EC5               	movlw	197
   744  000CF6  6F8D               	movwf	(main@Kd+1)& (0+255),b
   745  000CF8  0E27               	movlw	39
   746  000CFA  6F8E               	movwf	(main@Kd+2)& (0+255),b
   747  000CFC  0E37               	movlw	55
   748  000CFE  6F8F               	movwf	(main@Kd+3)& (0+255),b
   749  000D00                     
   750                           ; BSR set to: 0
   751                           ;main_PID_BUCK.c: 156:     int offset=512;
   752  000D00  0E02               	movlw	2
   753  000D02  6F99               	movwf	(main@offset+1)& (0+255),b
   754  000D04  0E00               	movlw	0
   755  000D06  6F98               	movwf	main@offset& (0+255),b
   756  000D08                     
   757                           ; BSR set to: 0
   758                           ;main_PID_BUCK.c: 159:     float Integral=0;
   759  000D08  0E00               	movlw	0
   760  000D0A  6FB4               	movwf	main@Integral& (0+255),b
   761  000D0C  0E00               	movlw	0
   762  000D0E  6FB5               	movwf	(main@Integral+1)& (0+255),b
   763  000D10  0E00               	movlw	0
   764  000D12  6FB6               	movwf	(main@Integral+2)& (0+255),b
   765  000D14  0E00               	movlw	0
   766  000D16  6FB7               	movwf	(main@Integral+3)& (0+255),b
   767  000D18                     
   768                           ; BSR set to: 0
   769                           ;main_PID_BUCK.c: 161:     float T=0.12;
   770  000D18  0E8F               	movlw	143
   771  000D1A  6FA6               	movwf	main@T& (0+255),b
   772  000D1C  0EC2               	movlw	194
   773  000D1E  6FA7               	movwf	(main@T+1)& (0+255),b
   774  000D20  0EF5               	movlw	245
   775  000D22  6FA8               	movwf	(main@T+2)& (0+255),b
   776  000D24  0E3D               	movlw	61
   777  000D26  6FA9               	movwf	(main@T+3)& (0+255),b
   778  000D28                     
   779                           ; BSR set to: 0
   780                           ;main_PID_BUCK.c: 162:     float Error_0=0;
   781  000D28  0E00               	movlw	0
   782  000D2A  6FA2               	movwf	main@Error_0& (0+255),b
   783  000D2C  0E00               	movlw	0
   784  000D2E  6FA3               	movwf	(main@Error_0+1)& (0+255),b
   785  000D30  0E00               	movlw	0
   786  000D32  6FA4               	movwf	(main@Error_0+2)& (0+255),b
   787  000D34  0E00               	movlw	0
   788  000D36  6FA5               	movwf	(main@Error_0+3)& (0+255),b
   789  000D38                     l2879:
   790                           
   791                           ;main_PID_BUCK.c: 168:         input=ADC_Read(0);
   792  000D38  0E00               	movlw	0
   793  000D3A  6E02               	movwf	(ADC_Read@channel+1)^0,c
   794  000D3C  0E00               	movlw	0
   795  000D3E  6E01               	movwf	ADC_Read@channel^0,c
   796  000D40  EC48  F012         	call	_ADC_Read	;wreg free
   797  000D44  C001  F0B8         	movff	?_ADC_Read,main@input
   798  000D48  C002  F0B9         	movff	?_ADC_Read+1,main@input+1
   799  000D4C                     
   800                           ;main_PID_BUCK.c: 170:         Error = offset - input;
   801  000D4C  0100               	movlb	0	; () banked
   802  000D4E  51B8               	movf	main@input& (0+255),w,b
   803  000D50  5D98               	subwf	main@offset& (0+255),w,b
   804  000D52  6E5E               	movwf	??_main^0,c
   805  000D54  51B9               	movf	(main@input+1)& (0+255),w,b
   806  000D56  5999               	subwfb	(main@offset+1)& (0+255),w,b
   807  000D58  6E5F               	movwf	(??_main+1)^0,c
   808  000D5A  C05E  F001         	movff	??_main,___xxtofl@val
   809  000D5E  C05F  F002         	movff	??_main+1,___xxtofl@val+1
   810  000D62  0E00               	movlw	0
   811  000D64  BE02               	btfsc	(___xxtofl@val+1)^0,7,c
   812  000D66  0EFF               	movlw	-1
   813  000D68  6E03               	movwf	(___xxtofl@val+2)^0,c
   814  000D6A  6E04               	movwf	(___xxtofl@val+3)^0,c
   815  000D6C  0E01               	movlw	1
   816  000D6E  ECAD  F00E         	call	___xxtofl
   817  000D72  C001  F0BA         	movff	?___xxtofl,main@Error
   818  000D76  C002  F0BB         	movff	?___xxtofl+1,main@Error+1
   819  000D7A  C003  F0BC         	movff	?___xxtofl+2,main@Error+2
   820  000D7E  C004  F0BD         	movff	?___xxtofl+3,main@Error+3
   821  000D82                     
   822                           ;main_PID_BUCK.c: 171:         Proporcional = Error * Kp;
   823  000D82  C0BA  F001         	movff	main@Error,___flmul@b
   824  000D86  C0BB  F002         	movff	main@Error+1,___flmul@b+1
   825  000D8A  C0BC  F003         	movff	main@Error+2,___flmul@b+2
   826  000D8E  C0BD  F004         	movff	main@Error+3,___flmul@b+3
   827  000D92  C084  F005         	movff	main@Kp,___flmul@a
   828  000D96  C085  F006         	movff	main@Kp+1,___flmul@a+1
   829  000D9A  C086  F007         	movff	main@Kp+2,___flmul@a+2
   830  000D9E  C087  F008         	movff	main@Kp+3,___flmul@a+3
   831  000DA2  EC80  F008         	call	___flmul	;wreg free
   832  000DA6  C001  F0AA         	movff	?___flmul,main@Proporcional
   833  000DAA  C002  F0AB         	movff	?___flmul+1,main@Proporcional+1
   834  000DAE  C003  F0AC         	movff	?___flmul+2,main@Proporcional+2
   835  000DB2  C004  F0AD         	movff	?___flmul+3,main@Proporcional+3
   836  000DB6                     
   837                           ;main_PID_BUCK.c: 172:         Integral = Integral + Error * Ki * T;
   838  000DB6  C088  F005         	movff	main@Ki,___flmul@a
   839  000DBA  C089  F006         	movff	main@Ki+1,___flmul@a+1
   840  000DBE  C08A  F007         	movff	main@Ki+2,___flmul@a+2
   841  000DC2  C08B  F008         	movff	main@Ki+3,___flmul@a+3
   842  000DC6  C0BA  F001         	movff	main@Error,___flmul@b
   843  000DCA  C0BB  F002         	movff	main@Error+1,___flmul@b+1
   844  000DCE  C0BC  F003         	movff	main@Error+2,___flmul@b+2
   845  000DD2  C0BD  F004         	movff	main@Error+3,___flmul@b+3
   846  000DD6  EC80  F008         	call	___flmul	;wreg free
   847  000DDA  C001  F090         	movff	?___flmul,_main$994
   848  000DDE  C002  F091         	movff	?___flmul+1,_main$994+1
   849  000DE2  C003  F092         	movff	?___flmul+2,_main$994+2
   850  000DE6  C004  F093         	movff	?___flmul+3,_main$994+3
   851  000DEA                     
   852                           ;main_PID_BUCK.c: 172:         Integral = Integral + Error * Ki * T;
   853  000DEA  C0A6  F005         	movff	main@T,___flmul@a
   854  000DEE  C0A7  F006         	movff	main@T+1,___flmul@a+1
   855  000DF2  C0A8  F007         	movff	main@T+2,___flmul@a+2
   856  000DF6  C0A9  F008         	movff	main@T+3,___flmul@a+3
   857  000DFA  C090  F001         	movff	_main$994,___flmul@b
   858  000DFE  C091  F002         	movff	_main$994+1,___flmul@b+1
   859  000E02  C092  F003         	movff	_main$994+2,___flmul@b+2
   860  000E06  C093  F004         	movff	_main$994+3,___flmul@b+3
   861  000E0A  EC80  F008         	call	___flmul	;wreg free
   862  000E0E  C001  F01A         	movff	?___flmul,___fladd@b
   863  000E12  C002  F01B         	movff	?___flmul+1,___fladd@b+1
   864  000E16  C003  F01C         	movff	?___flmul+2,___fladd@b+2
   865  000E1A  C004  F01D         	movff	?___flmul+3,___fladd@b+3
   866  000E1E  C0B4  F01E         	movff	main@Integral,___fladd@a
   867  000E22  C0B5  F01F         	movff	main@Integral+1,___fladd@a+1
   868  000E26  C0B6  F020         	movff	main@Integral+2,___fladd@a+2
   869  000E2A  C0B7  F021         	movff	main@Integral+3,___fladd@a+3
   870  000E2E  EC03  F004         	call	___fladd	;wreg free
   871  000E32  C01A  F0B4         	movff	?___fladd,main@Integral
   872  000E36  C01B  F0B5         	movff	?___fladd+1,main@Integral+1
   873  000E3A  C01C  F0B6         	movff	?___fladd+2,main@Integral+2
   874  000E3E  C01D  F0B7         	movff	?___fladd+3,main@Integral+3
   875  000E42                     
   876                           ;main_PID_BUCK.c: 173:         Derivativo = (Error - Error_0) * Kd / T;
   877  000E42  C08C  F005         	movff	main@Kd,___flmul@a
   878  000E46  C08D  F006         	movff	main@Kd+1,___flmul@a+1
   879  000E4A  C08E  F007         	movff	main@Kd+2,___flmul@a+2
   880  000E4E  C08F  F008         	movff	main@Kd+3,___flmul@a+3
   881  000E52  C0A2  F02E         	movff	main@Error_0,___flsub@a
   882  000E56  C0A3  F02F         	movff	main@Error_0+1,___flsub@a+1
   883  000E5A  C0A4  F030         	movff	main@Error_0+2,___flsub@a+2
   884  000E5E  C0A5  F031         	movff	main@Error_0+3,___flsub@a+3
   885  000E62  C0BA  F02A         	movff	main@Error,___flsub@b
   886  000E66  C0BB  F02B         	movff	main@Error+1,___flsub@b+1
   887  000E6A  C0BC  F02C         	movff	main@Error+2,___flsub@b+2
   888  000E6E  C0BD  F02D         	movff	main@Error+3,___flsub@b+3
   889  000E72  EC47  F013         	call	___flsub	;wreg free
   890  000E76  C02A  F001         	movff	?___flsub,___flmul@b
   891  000E7A  C02B  F002         	movff	?___flsub+1,___flmul@b+1
   892  000E7E  C02C  F003         	movff	?___flsub+2,___flmul@b+2
   893  000E82  C02D  F004         	movff	?___flsub+3,___flmul@b+3
   894  000E86  EC80  F008         	call	___flmul	;wreg free
   895  000E8A  C001  F032         	movff	?___flmul,___fldiv@b
   896  000E8E  C002  F033         	movff	?___flmul+1,___fldiv@b+1
   897  000E92  C003  F034         	movff	?___flmul+2,___fldiv@b+2
   898  000E96  C004  F035         	movff	?___flmul+3,___fldiv@b+3
   899  000E9A  C0A6  F036         	movff	main@T,___fldiv@a
   900  000E9E  C0A7  F037         	movff	main@T+1,___fldiv@a+1
   901  000EA2  C0A8  F038         	movff	main@T+2,___fldiv@a+2
   902  000EA6  C0A9  F039         	movff	main@T+3,___fldiv@a+3
   903  000EAA  EC95  F00A         	call	___fldiv	;wreg free
   904  000EAE  C032  F0AE         	movff	?___fldiv,main@Derivativo
   905  000EB2  C033  F0AF         	movff	?___fldiv+1,main@Derivativo+1
   906  000EB6  C034  F0B0         	movff	?___fldiv+2,main@Derivativo+2
   907  000EBA  C035  F0B1         	movff	?___fldiv+3,main@Derivativo+3
   908  000EBE                     
   909                           ;main_PID_BUCK.c: 174:         Error_0 = Error;
   910  000EBE  C0BA  F0A2         	movff	main@Error,main@Error_0
   911  000EC2  C0BB  F0A3         	movff	main@Error+1,main@Error_0+1
   912  000EC6  C0BC  F0A4         	movff	main@Error+2,main@Error_0+2
   913  000ECA  C0BD  F0A5         	movff	main@Error+3,main@Error_0+3
   914  000ECE                     
   915                           ;main_PID_BUCK.c: 179:         Control =(int)(Proporcional + Integral + Derivativo);
   916  000ECE  C0B4  F01E         	movff	main@Integral,___fladd@a
   917  000ED2  C0B5  F01F         	movff	main@Integral+1,___fladd@a+1
   918  000ED6  C0B6  F020         	movff	main@Integral+2,___fladd@a+2
   919  000EDA  C0B7  F021         	movff	main@Integral+3,___fladd@a+3
   920  000EDE  C0AA  F01A         	movff	main@Proporcional,___fladd@b
   921  000EE2  C0AB  F01B         	movff	main@Proporcional+1,___fladd@b+1
   922  000EE6  C0AC  F01C         	movff	main@Proporcional+2,___fladd@b+2
   923  000EEA  C0AD  F01D         	movff	main@Proporcional+3,___fladd@b+3
   924  000EEE  EC03  F004         	call	___fladd	;wreg free
   925  000EF2  C01A  F094         	movff	?___fladd,_main$995
   926  000EF6  C01B  F095         	movff	?___fladd+1,_main$995+1
   927  000EFA  C01C  F096         	movff	?___fladd+2,_main$995+2
   928  000EFE  C01D  F097         	movff	?___fladd+3,_main$995+3
   929  000F02                     
   930                           ;main_PID_BUCK.c: 179:         Control =(int)(Proporcional + Integral + Derivativo);
   931  000F02  C0AE  F01E         	movff	main@Derivativo,___fladd@a
   932  000F06  C0AF  F01F         	movff	main@Derivativo+1,___fladd@a+1
   933  000F0A  C0B0  F020         	movff	main@Derivativo+2,___fladd@a+2
   934  000F0E  C0B1  F021         	movff	main@Derivativo+3,___fladd@a+3
   935  000F12  C094  F01A         	movff	_main$995,___fladd@b
   936  000F16  C095  F01B         	movff	_main$995+1,___fladd@b+1
   937  000F1A  C096  F01C         	movff	_main$995+2,___fladd@b+2
   938  000F1E  C097  F01D         	movff	_main$995+3,___fladd@b+3
   939  000F22  EC03  F004         	call	___fladd	;wreg free
   940  000F26  C01A  F02A         	movff	?___fladd,___fltol@f1
   941  000F2A  C01B  F02B         	movff	?___fladd+1,___fltol@f1+1
   942  000F2E  C01C  F02C         	movff	?___fladd+2,___fltol@f1+2
   943  000F32  C01D  F02D         	movff	?___fladd+3,___fltol@f1+3
   944  000F36  ECFD  F010         	call	___fltol	;wreg free
   945  000F3A  C02A  F0B2         	movff	?___fltol,main@Control
   946  000F3E  C02B  F0B3         	movff	?___fltol+1,main@Control+1
   947                           
   948                           ;main_PID_BUCK.c: 181:         if(Control>120){
   949  000F42  0100               	movlb	0	; () banked
   950  000F44  BFB3               	btfsc	(main@Control+1)& (0+255),7,b
   951  000F46  EFAE  F007         	goto	u3101
   952  000F4A  51B3               	movf	(main@Control+1)& (0+255),w,b
   953  000F4C  E109               	bnz	u3100
   954  000F4E  0E79               	movlw	121
   955  000F50  5DB2               	subwf	main@Control& (0+255),w,b
   956  000F52  A0D8               	btfss	status,0,c
   957  000F54  EFAE  F007         	goto	u3101
   958  000F58  EFB0  F007         	goto	u3100
   959  000F5C                     u3101:
   960  000F5C  EFB4  F007         	goto	l2899
   961  000F60                     u3100:
   962  000F60                     
   963                           ; BSR set to: 0
   964                           ;main_PID_BUCK.c: 182:             Control=120;
   965  000F60  0E00               	movlw	0
   966  000F62  6FB3               	movwf	(main@Control+1)& (0+255),b
   967  000F64  0E78               	movlw	120
   968  000F66  6FB2               	movwf	main@Control& (0+255),b
   969  000F68                     l2899:
   970                           
   971                           ; BSR set to: 0
   972                           ;main_PID_BUCK.c: 184:         PWM(60);
   973  000F68  0E00               	movlw	0
   974  000F6A  6E02               	movwf	(PWM@output+1)^0,c
   975  000F6C  0E3C               	movlw	60
   976  000F6E  6E01               	movwf	PWM@output^0,c
   977  000F70  ECCD  F012         	call	_PWM	;wreg free
   978  000F74                     
   979                           ;main_PID_BUCK.c: 185:         char str[20];;main_PID_BUCK.c: 186:         sprintf(str, 
      +                          "%d", Control );
   980  000F74  0E70               	movlw	low main@str
   981  000F76  6E58               	movwf	sprintf@s^0,c
   982  000F78  0E00               	movlw	high main@str
   983  000F7A  6E59               	movwf	(sprintf@s+1)^0,c
   984  000F7C  0E01               	movlw	low STR_1
   985  000F7E  6E5A               	movwf	sprintf@fmt^0,c
   986  000F80  0E08               	movlw	high STR_1
   987  000F82  6E5B               	movwf	(sprintf@fmt+1)^0,c
   988  000F84  C0B2  F05C         	movff	main@Control,?_sprintf+4
   989  000F88  C0B3  F05D         	movff	main@Control+1,?_sprintf+5
   990  000F8C  ECFA  F012         	call	_sprintf	;wreg free
   991  000F90                     
   992                           ;main_PID_BUCK.c: 187:         LCD_String_xy(1,0,str);
   993  000F90  0E00               	movlw	0
   994  000F92  6E08               	movwf	LCD_String_xy@pos^0,c
   995  000F94  0E70               	movlw	low main@str
   996  000F96  6E09               	movwf	LCD_String_xy@msg^0,c
   997  000F98  0E00               	movlw	high main@str
   998  000F9A  6E0A               	movwf	(LCD_String_xy@msg+1)^0,c
   999  000F9C  0E01               	movlw	1
  1000  000F9E  ECAC  F013         	call	_LCD_String_xy
  1001  000FA2                     
  1002                           ;main_PID_BUCK.c: 189:         int PProporcional =(int)Proporcional;
  1003  000FA2  C0AA  F02A         	movff	main@Proporcional,___fltol@f1
  1004  000FA6  C0AB  F02B         	movff	main@Proporcional+1,___fltol@f1+1
  1005  000FAA  C0AC  F02C         	movff	main@Proporcional+2,___fltol@f1+2
  1006  000FAE  C0AD  F02D         	movff	main@Proporcional+3,___fltol@f1+3
  1007  000FB2  ECFD  F010         	call	___fltol	;wreg free
  1008  000FB6  C02A  F09A         	movff	?___fltol,main@PProporcional
  1009  000FBA  C02B  F09B         	movff	?___fltol+1,main@PProporcional+1
  1010  000FBE                     
  1011                           ;main_PID_BUCK.c: 190:         sprintf(str, "%d", PProporcional );
  1012  000FBE  0E70               	movlw	low main@str
  1013  000FC0  6E58               	movwf	sprintf@s^0,c
  1014  000FC2  0E00               	movlw	high main@str
  1015  000FC4  6E59               	movwf	(sprintf@s+1)^0,c
  1016  000FC6  0E01               	movlw	low STR_1
  1017  000FC8  6E5A               	movwf	sprintf@fmt^0,c
  1018  000FCA  0E08               	movlw	high STR_1
  1019  000FCC  6E5B               	movwf	(sprintf@fmt+1)^0,c
  1020  000FCE  C09A  F05C         	movff	main@PProporcional,?_sprintf+4
  1021  000FD2  C09B  F05D         	movff	main@PProporcional+1,?_sprintf+5
  1022  000FD6  ECFA  F012         	call	_sprintf	;wreg free
  1023  000FDA                     
  1024                           ;main_PID_BUCK.c: 191:         LCD_String_xy(1,4,str);
  1025  000FDA  0E04               	movlw	4
  1026  000FDC  6E08               	movwf	LCD_String_xy@pos^0,c
  1027  000FDE  0E70               	movlw	low main@str
  1028  000FE0  6E09               	movwf	LCD_String_xy@msg^0,c
  1029  000FE2  0E00               	movlw	high main@str
  1030  000FE4  6E0A               	movwf	(LCD_String_xy@msg+1)^0,c
  1031  000FE6  0E01               	movlw	1
  1032  000FE8  ECAC  F013         	call	_LCD_String_xy
  1033  000FEC                     
  1034                           ;main_PID_BUCK.c: 193:         int PIntegral=(int)Integral;
  1035  000FEC  C0B4  F02A         	movff	main@Integral,___fltol@f1
  1036  000FF0  C0B5  F02B         	movff	main@Integral+1,___fltol@f1+1
  1037  000FF4  C0B6  F02C         	movff	main@Integral+2,___fltol@f1+2
  1038  000FF8  C0B7  F02D         	movff	main@Integral+3,___fltol@f1+3
  1039  000FFC  ECFD  F010         	call	___fltol	;wreg free
  1040  001000  C02A  F09C         	movff	?___fltol,main@PIntegral
  1041  001004  C02B  F09D         	movff	?___fltol+1,main@PIntegral+1
  1042  001008                     
  1043                           ;main_PID_BUCK.c: 194:         sprintf(str, "%d", PIntegral );
  1044  001008  0E70               	movlw	low main@str
  1045  00100A  6E58               	movwf	sprintf@s^0,c
  1046  00100C  0E00               	movlw	high main@str
  1047  00100E  6E59               	movwf	(sprintf@s+1)^0,c
  1048  001010  0E01               	movlw	low STR_1
  1049  001012  6E5A               	movwf	sprintf@fmt^0,c
  1050  001014  0E08               	movlw	high STR_1
  1051  001016  6E5B               	movwf	(sprintf@fmt+1)^0,c
  1052  001018  C09C  F05C         	movff	main@PIntegral,?_sprintf+4
  1053  00101C  C09D  F05D         	movff	main@PIntegral+1,?_sprintf+5
  1054  001020  ECFA  F012         	call	_sprintf	;wreg free
  1055  001024                     
  1056                           ;main_PID_BUCK.c: 195:         LCD_String_xy(1,7,str);
  1057  001024  0E07               	movlw	7
  1058  001026  6E08               	movwf	LCD_String_xy@pos^0,c
  1059  001028  0E70               	movlw	low main@str
  1060  00102A  6E09               	movwf	LCD_String_xy@msg^0,c
  1061  00102C  0E00               	movlw	high main@str
  1062  00102E  6E0A               	movwf	(LCD_String_xy@msg+1)^0,c
  1063  001030  0E01               	movlw	1
  1064  001032  ECAC  F013         	call	_LCD_String_xy
  1065  001036                     
  1066                           ;main_PID_BUCK.c: 197:         int PDerivativo=(int)Derivativo;
  1067  001036  C0AE  F02A         	movff	main@Derivativo,___fltol@f1
  1068  00103A  C0AF  F02B         	movff	main@Derivativo+1,___fltol@f1+1
  1069  00103E  C0B0  F02C         	movff	main@Derivativo+2,___fltol@f1+2
  1070  001042  C0B1  F02D         	movff	main@Derivativo+3,___fltol@f1+3
  1071  001046  ECFD  F010         	call	___fltol	;wreg free
  1072  00104A  C02A  F09E         	movff	?___fltol,main@PDerivativo
  1073  00104E  C02B  F09F         	movff	?___fltol+1,main@PDerivativo+1
  1074  001052                     
  1075                           ;main_PID_BUCK.c: 198:         sprintf(str, "%d", PDerivativo);
  1076  001052  0E70               	movlw	low main@str
  1077  001054  6E58               	movwf	sprintf@s^0,c
  1078  001056  0E00               	movlw	high main@str
  1079  001058  6E59               	movwf	(sprintf@s+1)^0,c
  1080  00105A  0E01               	movlw	low STR_1
  1081  00105C  6E5A               	movwf	sprintf@fmt^0,c
  1082  00105E  0E08               	movlw	high STR_1
  1083  001060  6E5B               	movwf	(sprintf@fmt+1)^0,c
  1084  001062  C09E  F05C         	movff	main@PDerivativo,?_sprintf+4
  1085  001066  C09F  F05D         	movff	main@PDerivativo+1,?_sprintf+5
  1086  00106A  ECFA  F012         	call	_sprintf	;wreg free
  1087  00106E                     
  1088                           ;main_PID_BUCK.c: 199:         LCD_String_xy(2,4,str);
  1089  00106E  0E04               	movlw	4
  1090  001070  6E08               	movwf	LCD_String_xy@pos^0,c
  1091  001072  0E70               	movlw	low main@str
  1092  001074  6E09               	movwf	LCD_String_xy@msg^0,c
  1093  001076  0E00               	movlw	high main@str
  1094  001078  6E0A               	movwf	(LCD_String_xy@msg+1)^0,c
  1095  00107A  0E02               	movlw	2
  1096  00107C  ECAC  F013         	call	_LCD_String_xy
  1097  001080                     
  1098                           ;main_PID_BUCK.c: 201:         int pE=(int)Error;
  1099  001080  C0BA  F02A         	movff	main@Error,___fltol@f1
  1100  001084  C0BB  F02B         	movff	main@Error+1,___fltol@f1+1
  1101  001088  C0BC  F02C         	movff	main@Error+2,___fltol@f1+2
  1102  00108C  C0BD  F02D         	movff	main@Error+3,___fltol@f1+3
  1103  001090  ECFD  F010         	call	___fltol	;wreg free
  1104  001094  C02A  F0A0         	movff	?___fltol,main@pE
  1105  001098  C02B  F0A1         	movff	?___fltol+1,main@pE+1
  1106  00109C                     
  1107                           ;main_PID_BUCK.c: 202:         sprintf(str, "%d", pE);
  1108  00109C  0E70               	movlw	low main@str
  1109  00109E  6E58               	movwf	sprintf@s^0,c
  1110  0010A0  0E00               	movlw	high main@str
  1111  0010A2  6E59               	movwf	(sprintf@s+1)^0,c
  1112  0010A4  0E01               	movlw	low STR_1
  1113  0010A6  6E5A               	movwf	sprintf@fmt^0,c
  1114  0010A8  0E08               	movlw	high STR_1
  1115  0010AA  6E5B               	movwf	(sprintf@fmt+1)^0,c
  1116  0010AC  C0A0  F05C         	movff	main@pE,?_sprintf+4
  1117  0010B0  C0A1  F05D         	movff	main@pE+1,?_sprintf+5
  1118  0010B4  ECFA  F012         	call	_sprintf	;wreg free
  1119  0010B8                     
  1120                           ;main_PID_BUCK.c: 203:         LCD_String_xy(2,0,str);
  1121  0010B8  0E00               	movlw	0
  1122  0010BA  6E08               	movwf	LCD_String_xy@pos^0,c
  1123  0010BC  0E70               	movlw	low main@str
  1124  0010BE  6E09               	movwf	LCD_String_xy@msg^0,c
  1125  0010C0  0E00               	movlw	high main@str
  1126  0010C2  6E0A               	movwf	(LCD_String_xy@msg+1)^0,c
  1127  0010C4  0E02               	movlw	2
  1128  0010C6  ECAC  F013         	call	_LCD_String_xy
  1129  0010CA                     
  1130                           ;main_PID_BUCK.c: 206:         sprintf(str, "%d", input);
  1131  0010CA  0E70               	movlw	low main@str
  1132  0010CC  6E58               	movwf	sprintf@s^0,c
  1133  0010CE  0E00               	movlw	high main@str
  1134  0010D0  6E59               	movwf	(sprintf@s+1)^0,c
  1135  0010D2  0E01               	movlw	low STR_1
  1136  0010D4  6E5A               	movwf	sprintf@fmt^0,c
  1137  0010D6  0E08               	movlw	high STR_1
  1138  0010D8  6E5B               	movwf	(sprintf@fmt+1)^0,c
  1139  0010DA  C0B8  F05C         	movff	main@input,?_sprintf+4
  1140  0010DE  C0B9  F05D         	movff	main@input+1,?_sprintf+5
  1141  0010E2  ECFA  F012         	call	_sprintf	;wreg free
  1142  0010E6                     
  1143                           ;main_PID_BUCK.c: 207:         LCD_String_xy(2,7,str);
  1144  0010E6  0E07               	movlw	7
  1145  0010E8  6E08               	movwf	LCD_String_xy@pos^0,c
  1146  0010EA  0E70               	movlw	low main@str
  1147  0010EC  6E09               	movwf	LCD_String_xy@msg^0,c
  1148  0010EE  0E00               	movlw	high main@str
  1149  0010F0  6E0A               	movwf	(LCD_String_xy@msg+1)^0,c
  1150  0010F2  0E02               	movlw	2
  1151  0010F4  ECAC  F013         	call	_LCD_String_xy
  1152  0010F8  EF9C  F006         	goto	l2879
  1153  0010FC  EF00  F000         	goto	start
  1154  001100                     __end_of_main:
  1155                           	opt callstack 0
  1156                           
  1157 ;; *************** function _sprintf *****************
  1158 ;; Defined at:
  1159 ;;		line 9 in file "C:\Program Files (x86)\Microchip\xc8\v2.10\pic\sources\c99\common\nf_sprintf.c"
  1160 ;; Parameters:    Size  Location     Type
  1161 ;;  s               2   87[COMRAM] PTR unsigned char 
  1162 ;;		 -> main@str(20), 
  1163 ;;  fmt             2   89[COMRAM] PTR const unsigned char 
  1164 ;;		 -> STR_6(3), STR_5(3), STR_4(3), STR_3(3), 
  1165 ;;		 -> STR_2(3), STR_1(3), 
  1166 ;; Auto vars:     Size  Location     Type
  1167 ;;  f               6    4[BANK0 ] struct _IO_FILE
  1168 ;;  ap              2    2[BANK0 ] PTR void [1]
  1169 ;;		 -> ?_sprintf(2), 
  1170 ;;  ret             2    0        int 
  1171 ;; Return value:  Size  Location     Type
  1172 ;;                  2   87[COMRAM] int 
  1173 ;; Registers used:
  1174 ;;		wreg, fsr1l, fsr1h, fsr2l, fsr2h, status,2, status,0, tblptrl, tblptrh, tblptru, cstack
  1175 ;; Tracked objects:
  1176 ;;		On entry : 0/0
  1177 ;;		On exit  : 0/0
  1178 ;;		Unchanged: 0/0
  1179 ;; Data sizes:     COMRAM   BANK0   BANK1   BANK2   BANK3   BANK4   BANK5   BANK6   BANK7
  1180 ;;      Params:         6       0       0       0       0       0       0       0       0
  1181 ;;      Locals:         0      10       0       0       0       0       0       0       0
  1182 ;;      Temps:          0       0       0       0       0       0       0       0       0
  1183 ;;      Totals:         6      10       0       0       0       0       0       0       0
  1184 ;;Total ram usage:       16 bytes
  1185 ;; Hardware stack levels used:    1
  1186 ;; Hardware stack levels required when called:    7
  1187 ;; This function calls:
  1188 ;;		_vfprintf
  1189 ;; This function is called by:
  1190 ;;		_main
  1191 ;; This function uses a non-reentrant model
  1192 ;;
  1193                           
  1194                           	psect	text1
  1195  0025F4                     __ptext1:
  1196                           	opt callstack 0
  1197  0025F4                     _sprintf:
  1198                           	opt callstack 23
  1199  0025F4  0E5C               	movlw	low (?_sprintf+4)
  1200  0025F6  0100               	movlb	0	; () banked
  1201  0025F8  6F62               	movwf	sprintf@ap& (0+255),b
  1202  0025FA  0E00               	movlw	high (?_sprintf+4)
  1203  0025FC  6F63               	movwf	(sprintf@ap+1)& (0+255),b
  1204  0025FE  C058  F064         	movff	sprintf@s,sprintf@f
  1205  002602  C059  F065         	movff	sprintf@s+1,sprintf@f+1
  1206  002606                     
  1207                           ; BSR set to: 0
  1208  002606  0E00               	movlw	0
  1209  002608  6F67               	movwf	(sprintf@f+3)& (0+255),b
  1210  00260A  0E00               	movlw	0
  1211  00260C  6F66               	movwf	(sprintf@f+2)& (0+255),b
  1212  00260E                     
  1213                           ; BSR set to: 0
  1214  00260E  0E00               	movlw	0
  1215  002610  6F69               	movwf	(sprintf@f+5)& (0+255),b
  1216  002612  0E00               	movlw	0
  1217  002614  6F68               	movwf	(sprintf@f+4)& (0+255),b
  1218  002616                     
  1219                           ; BSR set to: 0
  1220  002616  0E64               	movlw	low sprintf@f
  1221  002618  6E50               	movwf	vfprintf@fp^0,c
  1222  00261A  0E00               	movlw	high sprintf@f
  1223  00261C  6E51               	movwf	(vfprintf@fp+1)^0,c
  1224  00261E  C05A  F052         	movff	sprintf@fmt,vfprintf@fmt
  1225  002622  C05B  F053         	movff	sprintf@fmt+1,vfprintf@fmt+1
  1226  002626  0E62               	movlw	low sprintf@ap
  1227  002628  6E54               	movwf	vfprintf@ap^0,c
  1228  00262A  0E00               	movlw	high sprintf@ap
  1229  00262C  6E55               	movwf	(vfprintf@ap+1)^0,c
  1230  00262E  EC9C  F012         	call	_vfprintf	;wreg free
  1231  002632  0100               	movlb	0	; () banked
  1232  002634  5166               	movf	(sprintf@f+2)& (0+255),w,b
  1233  002636  2458               	addwf	sprintf@s^0,w,c
  1234  002638  6ED9               	movwf	fsr2l,c
  1235  00263A  5167               	movf	(sprintf@f+3)& (0+255),w,b
  1236  00263C  2059               	addwfc	(sprintf@s+1)^0,w,c
  1237  00263E  6EDA               	movwf	fsr2h,c
  1238  002640  0E00               	movlw	0
  1239  002642  6EDF               	movwf	indf2,c
  1240  002644                     
  1241                           ; BSR set to: 0
  1242  002644  0012               	return		;funcret
  1243  002646                     __end_of_sprintf:
  1244                           	opt callstack 0
  1245                           
  1246 ;; *************** function _vfprintf *****************
  1247 ;; Defined at:
  1248 ;;		line 1368 in file "C:\Program Files (x86)\Microchip\xc8\v2.10\pic\sources\c99\common\doprnt.c"
  1249 ;; Parameters:    Size  Location     Type
  1250 ;;  fp              2   79[COMRAM] PTR struct _IO_FILE
  1251 ;;		 -> sprintf@f(6), 
  1252 ;;  fmt             2   81[COMRAM] PTR const unsigned char 
  1253 ;;		 -> STR_6(3), STR_5(3), STR_4(3), STR_3(3), 
  1254 ;;		 -> STR_2(3), STR_1(3), 
  1255 ;;  ap              2   83[COMRAM] PTR PTR void 
  1256 ;;		 -> sprintf@ap(2), 
  1257 ;; Auto vars:     Size  Location     Type
  1258 ;;  cfmt            2   85[COMRAM] PTR unsigned char 
  1259 ;;		 -> STR_6(3), STR_5(3), STR_4(3), STR_3(3), 
  1260 ;;		 -> STR_2(3), STR_1(3), 
  1261 ;; Return value:  Size  Location     Type
  1262 ;;                  2   79[COMRAM] int 
  1263 ;; Registers used:
  1264 ;;		wreg, fsr1l, fsr1h, fsr2l, fsr2h, status,2, status,0, tblptrl, tblptrh, tblptru, cstack
  1265 ;; Tracked objects:
  1266 ;;		On entry : 0/0
  1267 ;;		On exit  : 0/0
  1268 ;;		Unchanged: 0/0
  1269 ;; Data sizes:     COMRAM   BANK0   BANK1   BANK2   BANK3   BANK4   BANK5   BANK6   BANK7
  1270 ;;      Params:         6       0       0       0       0       0       0       0       0
  1271 ;;      Locals:         2       0       0       0       0       0       0       0       0
  1272 ;;      Temps:          0       0       0       0       0       0       0       0       0
  1273 ;;      Totals:         8       0       0       0       0       0       0       0       0
  1274 ;;Total ram usage:        8 bytes
  1275 ;; Hardware stack levels used:    1
  1276 ;; Hardware stack levels required when called:    6
  1277 ;; This function calls:
  1278 ;;		_vfpfcnvrt
  1279 ;; This function is called by:
  1280 ;;		_sprintf
  1281 ;; This function uses a non-reentrant model
  1282 ;;
  1283                           
  1284                           	psect	text2
  1285  002538                     __ptext2:
  1286                           	opt callstack 0
  1287  002538                     _vfprintf:
  1288                           	opt callstack 23
  1289  002538                     
  1290                           ;C:\Program Files (x86)\Microchip\xc8\v2.10\pic\sources\c99\common\doprnt.c: 1368: int v
      +                          fprintf(FILE *fp, const char *fmt, va_list ap);C:\Program Files (x86)\Microchip\xc8\v2.1
      +                          0\pic\sources\c99\common\doprnt.c: 1369: {;C:\Program Files (x86)\Microchip\xc8\v2.10\pi
      +                          c\sources\c99\common\doprnt.c: 1371:     char *cfmt;;C:\Program Files (x86)\Microchip\xc
      +                          8\v2.10\pic\sources\c99\common\doprnt.c: 1373:     cfmt = (char *)fmt;
  1291  002538  C052  F056         	movff	vfprintf@fmt,vfprintf@cfmt
  1292  00253C  C053  F057         	movff	vfprintf@fmt+1,vfprintf@cfmt+1
  1293  002540                     
  1294                           ;C:\Program Files (x86)\Microchip\xc8\v2.10\pic\sources\c99\common\doprnt.c: 1374:     n
      +                          out = 0;
  1295  002540  0E00               	movlw	0
  1296  002542  0100               	movlb	0	; () banked
  1297  002544  6FBF               	movwf	(_nout+1)& (0+255),b
  1298  002546  0E00               	movlw	0
  1299  002548  6FBE               	movwf	_nout& (0+255),b
  1300                           
  1301                           ;C:\Program Files (x86)\Microchip\xc8\v2.10\pic\sources\c99\common\doprnt.c: 1375:     w
      +                          hile (*cfmt) {
  1302  00254A  EFBA  F012         	goto	l2221
  1303  00254E                     l2219:
  1304                           
  1305                           ; BSR set to: 0
  1306                           ;C:\Program Files (x86)\Microchip\xc8\v2.10\pic\sources\c99\common\doprnt.c: 1376:      
      +                             nout += vfpfcnvrt(fp, &cfmt, ap);
  1307  00254E  C050  F040         	movff	vfprintf@fp,vfpfcnvrt@fp
  1308  002552  C051  F041         	movff	vfprintf@fp+1,vfpfcnvrt@fp+1
  1309  002556  0E56               	movlw	low vfprintf@cfmt
  1310  002558  6E42               	movwf	vfpfcnvrt@fmt^0,c
  1311  00255A  0E00               	movlw	high vfprintf@cfmt
  1312  00255C  6E43               	movwf	(vfpfcnvrt@fmt+1)^0,c
  1313  00255E  C054  F044         	movff	vfprintf@ap,vfpfcnvrt@ap
  1314  002562  C055  F045         	movff	vfprintf@ap+1,vfpfcnvrt@ap+1
  1315  002566  ECD3  F00D         	call	_vfpfcnvrt	;wreg free
  1316  00256A  5040               	movf	?_vfpfcnvrt^0,w,c
  1317  00256C  0100               	movlb	0	; () banked
  1318  00256E  27BE               	addwf	_nout& (0+255),f,b
  1319  002570  5041               	movf	(?_vfpfcnvrt+1)^0,w,c
  1320  002572  23BF               	addwfc	(_nout+1)& (0+255),f,b
  1321  002574                     l2221:
  1322                           
  1323                           ; BSR set to: 0
  1324                           ;C:\Program Files (x86)\Microchip\xc8\v2.10\pic\sources\c99\common\doprnt.c: 1375:     w
      +                          hile (*cfmt) {
  1325  002574  C056  FFF6         	movff	vfprintf@cfmt,tblptrl
  1326  002578  C057  FFF7         	movff	vfprintf@cfmt+1,tblptrh
  1327  00257C                     	if	0	;tblptru may be non-zero
  1328  00257C                     	endif
  1329  00257C                     	if	0	;tblptru may be non-zero
  1330  00257C                     	endif
  1331  00257C  0008               	tblrd		*
  1332  00257E  50F5               	movf	tablat,w,c
  1333  002580  0900               	iorlw	0
  1334  002582  A4D8               	btfss	status,2,c
  1335  002584  EFC6  F012         	goto	u2031
  1336  002588  EFC8  F012         	goto	u2030
  1337  00258C                     u2031:
  1338  00258C  EFA7  F012         	goto	l2219
  1339  002590                     u2030:
  1340  002590                     
  1341                           ; BSR set to: 0
  1342                           ;C:\Program Files (x86)\Microchip\xc8\v2.10\pic\sources\c99\common\doprnt.c: 1378:     r
      +                          eturn nout;
  1343  002590  C0BE  F050         	movff	_nout,?_vfprintf
  1344  002594  C0BF  F051         	movff	_nout+1,?_vfprintf+1
  1345  002598                     
  1346                           ; BSR set to: 0
  1347  002598  0012               	return		;funcret
  1348  00259A                     __end_of_vfprintf:
  1349                           	opt callstack 0
  1350                           
  1351 ;; *************** function _vfpfcnvrt *****************
  1352 ;; Defined at:
  1353 ;;		line 670 in file "C:\Program Files (x86)\Microchip\xc8\v2.10\pic\sources\c99\common\doprnt.c"
  1354 ;; Parameters:    Size  Location     Type
  1355 ;;  fp              2   63[COMRAM] PTR struct _IO_FILE
  1356 ;;		 -> sprintf@f(6), 
  1357 ;;  fmt             2   65[COMRAM] PTR PTR unsigned char 
  1358 ;;		 -> vfprintf@cfmt(2), 
  1359 ;;  ap              2   67[COMRAM] PTR PTR void 
  1360 ;;		 -> sprintf@ap(2), 
  1361 ;; Auto vars:     Size  Location     Type
  1362 ;;  ll              8   71[COMRAM] long long 
  1363 ;;  llu             8    0        unsigned long long 
  1364 ;;  f               4    0        unsigned long long 
  1365 ;;  vp              3    0        PTR void 
  1366 ;;  ct              3    0        unsigned char [3]
  1367 ;;  cp              3    0        PTR unsigned char 
  1368 ;;  i               2    0        int 
  1369 ;;  done            2    0        int 
  1370 ;;  c               1    0        unsigned char 
  1371 ;; Return value:  Size  Location     Type
  1372 ;;                  2   63[COMRAM] int 
  1373 ;; Registers used:
  1374 ;;		wreg, fsr1l, fsr1h, fsr2l, fsr2h, status,2, status,0, tblptrl, tblptrh, tblptru, cstack
  1375 ;; Tracked objects:
  1376 ;;		On entry : 0/0
  1377 ;;		On exit  : 0/0
  1378 ;;		Unchanged: 0/0
  1379 ;; Data sizes:     COMRAM   BANK0   BANK1   BANK2   BANK3   BANK4   BANK5   BANK6   BANK7
  1380 ;;      Params:         6       0       0       0       0       0       0       0       0
  1381 ;;      Locals:         8       0       0       0       0       0       0       0       0
  1382 ;;      Temps:          2       0       0       0       0       0       0       0       0
  1383 ;;      Totals:        16       0       0       0       0       0       0       0       0
  1384 ;;Total ram usage:       16 bytes
  1385 ;; Hardware stack levels used:    1
  1386 ;; Hardware stack levels required when called:    5
  1387 ;; This function calls:
  1388 ;;		_dtoa
  1389 ;;		_fputc
  1390 ;; This function is called by:
  1391 ;;		_vfprintf
  1392 ;; This function uses a non-reentrant model
  1393 ;;
  1394                           
  1395                           	psect	text3
  1396  001BA6                     __ptext3:
  1397                           	opt callstack 0
  1398  001BA6                     _vfpfcnvrt:
  1399                           	opt callstack 23
  1400  001BA6                     
  1401                           ;C:\Program Files (x86)\Microchip\xc8\v2.10\pic\sources\c99\common\doprnt.c: 670: static
      +                           int vfpfcnvrt(FILE *fp, char *fmt[], va_list ap);C:\Program Files (x86)\Microchip\xc8\v
      +                          2.10\pic\sources\c99\common\doprnt.c: 671: {;C:\Program Files (x86)\Microchip\xc8\v2.10\
      +                          pic\sources\c99\common\doprnt.c: 672:     char c, *cp, ct[3];;C:\Program Files (x86)\Mic
      +                          rochip\xc8\v2.10\pic\sources\c99\common\doprnt.c: 673:     int done, i;;C:\Program Files
      +                           (x86)\Microchip\xc8\v2.10\pic\sources\c99\common\doprnt.c: 674:     long long ll;
  1402  001BA6  C042  FFD9         	movff	vfpfcnvrt@fmt,fsr2l
  1403  001BAA  C043  FFDA         	movff	vfpfcnvrt@fmt+1,fsr2h
  1404  001BAE  CFDE FFF6          	movff	postinc2,tblptrl
  1405  001BB2  CFDD FFF7          	movff	postdec2,tblptrh
  1406  001BB6                     	if	0	;tblptru may be non-zero
  1407  001BB6                     	endif
  1408  001BB6                     	if	0	;tblptru may be non-zero
  1409  001BB6                     	endif
  1410  001BB6  0008               	tblrd		*
  1411  001BB8  50F5               	movf	tablat,w,c
  1412  001BBA  0A25               	xorlw	37
  1413  001BBC  A4D8               	btfss	status,2,c
  1414  001BBE  EFE3  F00D         	goto	u1981
  1415  001BC2  EFE5  F00D         	goto	u1980
  1416  001BC6                     u1981:
  1417  001BC6  EF91  F00E         	goto	l2187
  1418  001BCA                     u1980:
  1419  001BCA                     
  1420                           ;C:\Program Files (x86)\Microchip\xc8\v2.10\pic\sources\c99\common\doprnt.c: 681:       
      +                            ++*fmt;
  1421  001BCA  C042  FFD9         	movff	vfpfcnvrt@fmt,fsr2l
  1422  001BCE  C043  FFDA         	movff	vfpfcnvrt@fmt+1,fsr2h
  1423  001BD2  2ADE               	incf	postinc2,f,c
  1424  001BD4  0E00               	movlw	0
  1425  001BD6  22DD               	addwfc	postdec2,f,c
  1426  001BD8                     
  1427                           ;C:\Program Files (x86)\Microchip\xc8\v2.10\pic\sources\c99\common\doprnt.c: 683:       
      +                            flags = width = 0;
  1428  001BD8  0E00               	movlw	0
  1429  001BDA  0100               	movlb	0	; () banked
  1430  001BDC  6FC1               	movwf	(_width+1)& (0+255),b
  1431  001BDE  0E00               	movlw	0
  1432  001BE0  6FC0               	movwf	_width& (0+255),b
  1433  001BE2  C0C0  F0C4         	movff	_width,_flags
  1434  001BE6  C0C1  F0C5         	movff	_width+1,_flags+1
  1435  001BEA                     
  1436                           ; BSR set to: 0
  1437                           ;C:\Program Files (x86)\Microchip\xc8\v2.10\pic\sources\c99\common\doprnt.c: 684:       
      +                            prec = -1;
  1438  001BEA  69C2               	setf	_prec& (0+255),b
  1439  001BEC  69C3               	setf	(_prec+1)& (0+255),b
  1440  001BEE                     
  1441                           ; BSR set to: 0
  1442                           ;C:\Program Files (x86)\Microchip\xc8\v2.10\pic\sources\c99\common\doprnt.c: 825:       
      +                            if ((*fmt[0] == 'd') || (*fmt[0] == 'i')) {
  1443  001BEE  C042  FFD9         	movff	vfpfcnvrt@fmt,fsr2l
  1444  001BF2  C043  FFDA         	movff	vfpfcnvrt@fmt+1,fsr2h
  1445  001BF6  CFDE FFF6          	movff	postinc2,tblptrl
  1446  001BFA  CFDD FFF7          	movff	postdec2,tblptrh
  1447  001BFE                     	if	0	;tblptru may be non-zero
  1448  001BFE                     	endif
  1449  001BFE                     	if	0	;tblptru may be non-zero
  1450  001BFE                     	endif
  1451  001BFE  0008               	tblrd		*
  1452  001C00  50F5               	movf	tablat,w,c
  1453  001C02  0A64               	xorlw	100
  1454  001C04  B4D8               	btfsc	status,2,c
  1455  001C06  EF07  F00E         	goto	u1991
  1456  001C0A  EF09  F00E         	goto	u1990
  1457  001C0E                     u1991:
  1458  001C0E  EF1B  F00E         	goto	l2165
  1459  001C12                     u1990:
  1460  001C12                     
  1461                           ; BSR set to: 0
  1462  001C12  C042  FFD9         	movff	vfpfcnvrt@fmt,fsr2l
  1463  001C16  C043  FFDA         	movff	vfpfcnvrt@fmt+1,fsr2h
  1464  001C1A  CFDE FFF6          	movff	postinc2,tblptrl
  1465  001C1E  CFDD FFF7          	movff	postdec2,tblptrh
  1466  001C22                     	if	0	;tblptru may be non-zero
  1467  001C22                     	endif
  1468  001C22                     	if	0	;tblptru may be non-zero
  1469  001C22                     	endif
  1470  001C22  0008               	tblrd		*
  1471  001C24  50F5               	movf	tablat,w,c
  1472  001C26  0A69               	xorlw	105
  1473  001C28  A4D8               	btfss	status,2,c
  1474  001C2A  EF19  F00E         	goto	u2001
  1475  001C2E  EF1B  F00E         	goto	u2000
  1476  001C32                     u2001:
  1477  001C32  EF5B  F00E         	goto	l2171
  1478  001C36                     u2000:
  1479  001C36                     l2165:
  1480                           
  1481                           ; BSR set to: 0
  1482                           ;C:\Program Files (x86)\Microchip\xc8\v2.10\pic\sources\c99\common\doprnt.c: 827:       
      +                                ++*fmt;
  1483  001C36  C042  FFD9         	movff	vfpfcnvrt@fmt,fsr2l
  1484  001C3A  C043  FFDA         	movff	vfpfcnvrt@fmt+1,fsr2h
  1485  001C3E  2ADE               	incf	postinc2,f,c
  1486  001C40  0E00               	movlw	0
  1487  001C42  22DD               	addwfc	postdec2,f,c
  1488                           
  1489                           ;C:\Program Files (x86)\Microchip\xc8\v2.10\pic\sources\c99\common\doprnt.c: 828:       
      +                                ll = (long long)(*(int *)__va_arg(*(int **)ap, (int)0));
  1490  001C44  C044  FFD9         	movff	vfpfcnvrt@ap,fsr2l
  1491  001C48  C045  FFDA         	movff	vfpfcnvrt@ap+1,fsr2h
  1492  001C4C  CFDF F046          	movff	indf2,??_vfpfcnvrt
  1493  001C50  0E02               	movlw	2
  1494  001C52  26DE               	addwf	postinc2,f,c
  1495  001C54  CFDF F047          	movff	indf2,??_vfpfcnvrt+1
  1496  001C58  0E00               	movlw	0
  1497  001C5A  22DD               	addwfc	postdec2,f,c
  1498  001C5C  C046  FFD9         	movff	??_vfpfcnvrt,fsr2l
  1499  001C60  C047  FFDA         	movff	??_vfpfcnvrt+1,fsr2h
  1500  001C64  CFDE F048          	movff	postinc2,vfpfcnvrt@ll
  1501  001C68  CFDD F049          	movff	postdec2,vfpfcnvrt@ll+1
  1502  001C6C  0E00               	movlw	0
  1503  001C6E  BE49               	btfsc	(vfpfcnvrt@ll+1)^0,7,c
  1504  001C70  0EFF               	movlw	-1
  1505  001C72  6E4A               	movwf	(vfpfcnvrt@ll+2)^0,c
  1506  001C74  6E4B               	movwf	(vfpfcnvrt@ll+3)^0,c
  1507  001C76  6E4C               	movwf	(vfpfcnvrt@ll+4)^0,c
  1508  001C78  6E4D               	movwf	(vfpfcnvrt@ll+5)^0,c
  1509  001C7A  6E4E               	movwf	(vfpfcnvrt@ll+6)^0,c
  1510  001C7C  6E4F               	movwf	(vfpfcnvrt@ll+7)^0,c
  1511  001C7E                     
  1512                           ; BSR set to: 0
  1513                           ;C:\Program Files (x86)\Microchip\xc8\v2.10\pic\sources\c99\common\doprnt.c: 830:       
      +                                return dtoa(fp, ll);
  1514  001C7E  C040  F01C         	movff	vfpfcnvrt@fp,dtoa@fp
  1515  001C82  C041  F01D         	movff	vfpfcnvrt@fp+1,dtoa@fp+1
  1516  001C86  C048  F01E         	movff	vfpfcnvrt@ll,dtoa@d
  1517  001C8A  C049  F01F         	movff	vfpfcnvrt@ll+1,dtoa@d+1
  1518  001C8E  C04A  F020         	movff	vfpfcnvrt@ll+2,dtoa@d+2
  1519  001C92  C04B  F021         	movff	vfpfcnvrt@ll+3,dtoa@d+3
  1520  001C96  C04C  F022         	movff	vfpfcnvrt@ll+4,dtoa@d+4
  1521  001C9A  C04D  F023         	movff	vfpfcnvrt@ll+5,dtoa@d+5
  1522  001C9E  C04E  F024         	movff	vfpfcnvrt@ll+6,dtoa@d+6
  1523  001CA2  C04F  F025         	movff	vfpfcnvrt@ll+7,dtoa@d+7
  1524  001CA6  EC62  F00C         	call	_dtoa	;wreg free
  1525  001CAA  C01C  F040         	movff	?_dtoa,?_vfpfcnvrt
  1526  001CAE  C01D  F041         	movff	?_dtoa+1,?_vfpfcnvrt+1
  1527  001CB2  EFAC  F00E         	goto	l189
  1528  001CB6                     l2171:
  1529                           
  1530                           ; BSR set to: 0
  1531                           ;C:\Program Files (x86)\Microchip\xc8\v2.10\pic\sources\c99\common\doprnt.c: 1350:      
      +                             if ((*fmt)[0] == '%') {
  1532  001CB6  C042  FFD9         	movff	vfpfcnvrt@fmt,fsr2l
  1533  001CBA  C043  FFDA         	movff	vfpfcnvrt@fmt+1,fsr2h
  1534  001CBE  CFDE FFF6          	movff	postinc2,tblptrl
  1535  001CC2  CFDD FFF7          	movff	postdec2,tblptrh
  1536  001CC6                     	if	0	;tblptru may be non-zero
  1537  001CC6                     	endif
  1538  001CC6                     	if	0	;tblptru may be non-zero
  1539  001CC6                     	endif
  1540  001CC6  0008               	tblrd		*
  1541  001CC8  50F5               	movf	tablat,w,c
  1542  001CCA  0A25               	xorlw	37
  1543  001CCC  A4D8               	btfss	status,2,c
  1544  001CCE  EF6B  F00E         	goto	u2011
  1545  001CD2  EF6D  F00E         	goto	u2010
  1546  001CD6                     u2011:
  1547  001CD6  EF84  F00E         	goto	l2181
  1548  001CDA                     u2010:
  1549  001CDA                     
  1550                           ; BSR set to: 0
  1551                           ;C:\Program Files (x86)\Microchip\xc8\v2.10\pic\sources\c99\common\doprnt.c: 1351:      
      +                                 ++*fmt;
  1552  001CDA  C042  FFD9         	movff	vfpfcnvrt@fmt,fsr2l
  1553  001CDE  C043  FFDA         	movff	vfpfcnvrt@fmt+1,fsr2h
  1554  001CE2  2ADE               	incf	postinc2,f,c
  1555  001CE4  0E00               	movlw	0
  1556  001CE6  22DD               	addwfc	postdec2,f,c
  1557  001CE8                     
  1558                           ; BSR set to: 0
  1559                           ;C:\Program Files (x86)\Microchip\xc8\v2.10\pic\sources\c99\common\doprnt.c: 1352:      
      +                                 fputc((int)'%', fp);
  1560  001CE8  0E00               	movlw	0
  1561  001CEA  6E02               	movwf	(fputc@c+1)^0,c
  1562  001CEC  0E25               	movlw	37
  1563  001CEE  6E01               	movwf	fputc@c^0,c
  1564  001CF0  C040  F003         	movff	vfpfcnvrt@fp,fputc@fp
  1565  001CF4  C041  F004         	movff	vfpfcnvrt@fp+1,fputc@fp+1
  1566  001CF8  EC80  F011         	call	_fputc	;wreg free
  1567  001CFC                     l2177:
  1568                           
  1569                           ;C:\Program Files (x86)\Microchip\xc8\v2.10\pic\sources\c99\common\doprnt.c: 1353:      
      +                                 return 1;
  1570  001CFC  0E00               	movlw	0
  1571  001CFE  6E41               	movwf	(?_vfpfcnvrt+1)^0,c
  1572  001D00  0E01               	movlw	1
  1573  001D02  6E40               	movwf	?_vfpfcnvrt^0,c
  1574  001D04  EFAC  F00E         	goto	l189
  1575  001D08                     l2181:
  1576                           
  1577                           ; BSR set to: 0
  1578                           ;C:\Program Files (x86)\Microchip\xc8\v2.10\pic\sources\c99\common\doprnt.c: 1357:      
      +                             ++*fmt;
  1579  001D08  C042  FFD9         	movff	vfpfcnvrt@fmt,fsr2l
  1580  001D0C  C043  FFDA         	movff	vfpfcnvrt@fmt+1,fsr2h
  1581  001D10  2ADE               	incf	postinc2,f,c
  1582  001D12  0E00               	movlw	0
  1583  001D14  22DD               	addwfc	postdec2,f,c
  1584  001D16                     
  1585                           ; BSR set to: 0
  1586                           ;C:\Program Files (x86)\Microchip\xc8\v2.10\pic\sources\c99\common\doprnt.c: 1358:      
      +                             return 0;
  1587  001D16  0E00               	movlw	0
  1588  001D18  6E41               	movwf	(?_vfpfcnvrt+1)^0,c
  1589  001D1A  0E00               	movlw	0
  1590  001D1C  6E40               	movwf	?_vfpfcnvrt^0,c
  1591  001D1E  EFAC  F00E         	goto	l189
  1592  001D22                     l2187:
  1593                           
  1594                           ;C:\Program Files (x86)\Microchip\xc8\v2.10\pic\sources\c99\common\doprnt.c: 1362:     f
      +                          putc((int)(*fmt)[0], fp);
  1595  001D22  C042  FFD9         	movff	vfpfcnvrt@fmt,fsr2l
  1596  001D26  C043  FFDA         	movff	vfpfcnvrt@fmt+1,fsr2h
  1597  001D2A  CFDE FFF6          	movff	postinc2,tblptrl
  1598  001D2E  CFDD FFF7          	movff	postdec2,tblptrh
  1599  001D32                     	if	0	;tblptru may be non-zero
  1600  001D32                     	endif
  1601  001D32                     	if	0	;tblptru may be non-zero
  1602  001D32                     	endif
  1603  001D32  0008               	tblrd		*
  1604  001D34  50F5               	movf	tablat,w,c
  1605  001D36  6E01               	movwf	fputc@c^0,c
  1606  001D38  6A02               	clrf	(fputc@c+1)^0,c
  1607  001D3A  C040  F003         	movff	vfpfcnvrt@fp,fputc@fp
  1608  001D3E  C041  F004         	movff	vfpfcnvrt@fp+1,fputc@fp+1
  1609  001D42  EC80  F011         	call	_fputc	;wreg free
  1610  001D46                     
  1611                           ;C:\Program Files (x86)\Microchip\xc8\v2.10\pic\sources\c99\common\doprnt.c: 1363:     +
      +                          +*fmt;
  1612  001D46  C042  FFD9         	movff	vfpfcnvrt@fmt,fsr2l
  1613  001D4A  C043  FFDA         	movff	vfpfcnvrt@fmt+1,fsr2h
  1614  001D4E  2ADE               	incf	postinc2,f,c
  1615  001D50  0E00               	movlw	0
  1616  001D52  22DD               	addwfc	postdec2,f,c
  1617  001D54  EF7E  F00E         	goto	l2177
  1618  001D58                     l189:
  1619  001D58  0012               	return		;funcret
  1620  001D5A                     __end_of_vfpfcnvrt:
  1621                           	opt callstack 0
  1622                           
  1623 ;; *************** function _dtoa *****************
  1624 ;; Defined at:
  1625 ;;		line 274 in file "C:\Program Files (x86)\Microchip\xc8\v2.10\pic\sources\c99\common\doprnt.c"
  1626 ;; Parameters:    Size  Location     Type
  1627 ;;  fp              2   27[COMRAM] PTR struct _IO_FILE
  1628 ;;		 -> sprintf@f(6), 
  1629 ;;  d               8   29[COMRAM] long long 
  1630 ;; Auto vars:     Size  Location     Type
  1631 ;;  n               8   53[COMRAM] long long 
  1632 ;;  i               2   61[COMRAM] int 
  1633 ;;  s               2   51[COMRAM] int 
  1634 ;;  w               2   49[COMRAM] int 
  1635 ;;  p               2   47[COMRAM] int 
  1636 ;; Return value:  Size  Location     Type
  1637 ;;                  2   27[COMRAM] int 
  1638 ;; Registers used:
  1639 ;;		wreg, fsr1l, fsr1h, fsr2l, fsr2h, status,2, status,0, cstack
  1640 ;; Tracked objects:
  1641 ;;		On entry : 0/0
  1642 ;;		On exit  : 0/0
  1643 ;;		Unchanged: 0/0
  1644 ;; Data sizes:     COMRAM   BANK0   BANK1   BANK2   BANK3   BANK4   BANK5   BANK6   BANK7
  1645 ;;      Params:        10       0       0       0       0       0       0       0       0
  1646 ;;      Locals:        18       0       0       0       0       0       0       0       0
  1647 ;;      Temps:          8       0       0       0       0       0       0       0       0
  1648 ;;      Totals:        36       0       0       0       0       0       0       0       0
  1649 ;;Total ram usage:       36 bytes
  1650 ;; Hardware stack levels used:    1
  1651 ;; Hardware stack levels required when called:    4
  1652 ;; This function calls:
  1653 ;;		___aodiv
  1654 ;;		___aomod
  1655 ;;		_abs
  1656 ;;		_pad
  1657 ;; This function is called by:
  1658 ;;		_vfpfcnvrt
  1659 ;; This function uses a non-reentrant model
  1660 ;;
  1661                           
  1662                           	psect	text4
  1663  0018C4                     __ptext4:
  1664                           	opt callstack 0
  1665  0018C4                     _dtoa:
  1666                           	opt callstack 23
  1667  0018C4                     
  1668                           ;C:\Program Files (x86)\Microchip\xc8\v2.10\pic\sources\c99\common\doprnt.c: 274: static
      +                           int dtoa(FILE *fp, long long d);C:\Program Files (x86)\Microchip\xc8\v2.10\pic\sources\
      +                          c99\common\doprnt.c: 275: {;C:\Program Files (x86)\Microchip\xc8\v2.10\pic\sources\c99\c
      +                          ommon\doprnt.c: 276:     int i, p, s, w;;C:\Program Files (x86)\Microchip\xc8\v2.10\pic\
      +                          sources\c99\common\doprnt.c: 277:     long long n;;C:\Program Files (x86)\Microchip\xc8\
      +                          v2.10\pic\sources\c99\common\doprnt.c: 280:     n = d;
  1669  0018C4  C01E  F036         	movff	dtoa@d,dtoa@n
  1670  0018C8  C01F  F037         	movff	dtoa@d+1,dtoa@n+1
  1671  0018CC  C020  F038         	movff	dtoa@d+2,dtoa@n+2
  1672  0018D0  C021  F039         	movff	dtoa@d+3,dtoa@n+3
  1673  0018D4  C022  F03A         	movff	dtoa@d+4,dtoa@n+4
  1674  0018D8  C023  F03B         	movff	dtoa@d+5,dtoa@n+5
  1675  0018DC  C024  F03C         	movff	dtoa@d+6,dtoa@n+6
  1676  0018E0  C025  F03D         	movff	dtoa@d+7,dtoa@n+7
  1677  0018E4                     
  1678                           ;C:\Program Files (x86)\Microchip\xc8\v2.10\pic\sources\c99\common\doprnt.c: 281:     s 
      +                          = n < 0 ? 1 : 0;
  1679  0018E4  BE3D               	btfsc	(dtoa@n+7)^0,7,c
  1680  0018E6  EF77  F00C         	goto	u1831
  1681  0018EA  EF7A  F00C         	goto	u1830
  1682  0018EE                     u1831:
  1683  0018EE  0E01               	movlw	1
  1684  0018F0  EF7B  F00C         	goto	u1840
  1685  0018F4                     u1830:
  1686  0018F4  0E00               	movlw	0
  1687  0018F6                     u1840:
  1688  0018F6  6E34               	movwf	dtoa@s^0,c
  1689  0018F8  6A35               	clrf	(dtoa@s+1)^0,c
  1690                           
  1691                           ;C:\Program Files (x86)\Microchip\xc8\v2.10\pic\sources\c99\common\doprnt.c: 282:     if
      +                           (s) {
  1692  0018FA  5034               	movf	dtoa@s^0,w,c
  1693  0018FC  1035               	iorwf	(dtoa@s+1)^0,w,c
  1694  0018FE  B4D8               	btfsc	status,2,c
  1695  001900  EF84  F00C         	goto	u1851
  1696  001904  EF86  F00C         	goto	u1850
  1697  001908                     u1851:
  1698  001908  EF96  F00C         	goto	l2085
  1699  00190C                     u1850:
  1700  00190C                     
  1701                           ;C:\Program Files (x86)\Microchip\xc8\v2.10\pic\sources\c99\common\doprnt.c: 283:       
      +                            n = -n;
  1702  00190C  1E3D               	comf	(dtoa@n+7)^0,f,c
  1703  00190E  1E3C               	comf	(dtoa@n+6)^0,f,c
  1704  001910  1E3B               	comf	(dtoa@n+5)^0,f,c
  1705  001912  1E3A               	comf	(dtoa@n+4)^0,f,c
  1706  001914  1E39               	comf	(dtoa@n+3)^0,f,c
  1707  001916  1E38               	comf	(dtoa@n+2)^0,f,c
  1708  001918  1E37               	comf	(dtoa@n+1)^0,f,c
  1709  00191A  6C36               	negf	dtoa@n^0,c
  1710  00191C  0E00               	movlw	0
  1711  00191E  2237               	addwfc	(dtoa@n+1)^0,f,c
  1712  001920  2238               	addwfc	(dtoa@n+2)^0,f,c
  1713  001922  2239               	addwfc	(dtoa@n+3)^0,f,c
  1714  001924  223A               	addwfc	(dtoa@n+4)^0,f,c
  1715  001926  223B               	addwfc	(dtoa@n+5)^0,f,c
  1716  001928  223C               	addwfc	(dtoa@n+6)^0,f,c
  1717  00192A  223D               	addwfc	(dtoa@n+7)^0,f,c
  1718  00192C                     l2085:
  1719                           
  1720                           ;C:\Program Files (x86)\Microchip\xc8\v2.10\pic\sources\c99\common\doprnt.c: 287:     if
      +                           (!(prec < 0)) {
  1721  00192C  0100               	movlb	0	; () banked
  1722  00192E  BFC3               	btfsc	(_prec+1)& (0+255),7,b
  1723  001930  EF9C  F00C         	goto	u1861
  1724  001934  EF9E  F00C         	goto	u1860
  1725  001938                     u1861:
  1726  001938  EF9F  F00C         	goto	l2089
  1727  00193C                     u1860:
  1728  00193C                     
  1729                           ; BSR set to: 0
  1730                           ;C:\Program Files (x86)\Microchip\xc8\v2.10\pic\sources\c99\common\doprnt.c: 288:       
      +                            flags &= ~(1 << 1);
  1731  00193C  93C4               	bcf	_flags& (0+255),1,b
  1732  00193E                     l2089:
  1733                           
  1734                           ; BSR set to: 0
  1735                           ;C:\Program Files (x86)\Microchip\xc8\v2.10\pic\sources\c99\common\doprnt.c: 290:     p 
      +                          = (0 < prec) ? prec : 1;
  1736  00193E  BFC3               	btfsc	(_prec+1)& (0+255),7,b
  1737  001940  EFAC  F00C         	goto	u1870
  1738  001944  51C3               	movf	(_prec+1)& (0+255),w,b
  1739  001946  E106               	bnz	u1871
  1740  001948  05C2               	decf	_prec& (0+255),w,b
  1741  00194A  B0D8               	btfsc	status,0,c
  1742  00194C  EFAA  F00C         	goto	u1871
  1743  001950  EFAC  F00C         	goto	u1870
  1744  001954                     u1871:
  1745  001954  EFB2  F00C         	goto	l162
  1746  001958                     u1870:
  1747  001958                     
  1748                           ; BSR set to: 0
  1749  001958  0E00               	movlw	0
  1750  00195A  6E31               	movwf	(dtoa@p+1)^0,c
  1751  00195C  0E01               	movlw	1
  1752  00195E  6E30               	movwf	dtoa@p^0,c
  1753  001960  EFB6  F00C         	goto	l164
  1754  001964                     l162:
  1755                           
  1756                           ; BSR set to: 0
  1757  001964  C0C2  F030         	movff	_prec,dtoa@p
  1758  001968  C0C3  F031         	movff	_prec+1,dtoa@p+1
  1759  00196C                     l164:
  1760                           
  1761                           ; BSR set to: 0
  1762                           ;C:\Program Files (x86)\Microchip\xc8\v2.10\pic\sources\c99\common\doprnt.c: 291:     w 
      +                          = width;
  1763  00196C  C0C0  F032         	movff	_width,dtoa@w
  1764  001970  C0C1  F033         	movff	_width+1,dtoa@w+1
  1765  001974                     
  1766                           ; BSR set to: 0
  1767                           ;C:\Program Files (x86)\Microchip\xc8\v2.10\pic\sources\c99\common\doprnt.c: 292:     if
      +                           (s || (flags & (1 << 2))) {
  1768  001974  5034               	movf	dtoa@s^0,w,c
  1769  001976  1035               	iorwf	(dtoa@s+1)^0,w,c
  1770  001978  A4D8               	btfss	status,2,c
  1771  00197A  EFC1  F00C         	goto	u1881
  1772  00197E  EFC3  F00C         	goto	u1880
  1773  001982                     u1881:
  1774  001982  EFCA  F00C         	goto	l2097
  1775  001986                     u1880:
  1776  001986                     
  1777                           ; BSR set to: 0
  1778  001986  A5C4               	btfss	_flags& (0+255),2,b
  1779  001988  EFC8  F00C         	goto	u1891
  1780  00198C  EFCA  F00C         	goto	u1890
  1781  001990                     u1891:
  1782  001990  EFCD  F00C         	goto	l2099
  1783  001994                     u1890:
  1784  001994                     l2097:
  1785                           
  1786                           ; BSR set to: 0
  1787                           ;C:\Program Files (x86)\Microchip\xc8\v2.10\pic\sources\c99\common\doprnt.c: 293:       
      +                            --w;
  1788  001994  0632               	decf	dtoa@w^0,f,c
  1789  001996  A0D8               	btfss	status,0,c
  1790  001998  0633               	decf	(dtoa@w+1)^0,f,c
  1791  00199A                     l2099:
  1792                           
  1793                           ; BSR set to: 0
  1794                           ;C:\Program Files (x86)\Microchip\xc8\v2.10\pic\sources\c99\common\doprnt.c: 297:     i 
      +                          = sizeof(dbuf) - 1;
  1795  00199A  0E00               	movlw	0
  1796  00199C  6E3F               	movwf	(dtoa@i+1)^0,c
  1797  00199E  0E1F               	movlw	31
  1798  0019A0  6E3E               	movwf	dtoa@i^0,c
  1799  0019A2                     
  1800                           ; BSR set to: 0
  1801                           ;C:\Program Files (x86)\Microchip\xc8\v2.10\pic\sources\c99\common\doprnt.c: 298:     db
      +                          uf[i] = '\0';
  1802  0019A2  0E00               	movlw	0
  1803  0019A4  6FE5               	movwf	(_dbuf+31)& (0+255),b
  1804                           
  1805                           ;C:\Program Files (x86)\Microchip\xc8\v2.10\pic\sources\c99\common\doprnt.c: 299:     wh
      +                          ile (!(i < 1) && (n || (0 < p) || ((0 < w) && (flags & (1 << 1))))) {
  1806  0019A6  EF51  F00D         	goto	l2113
  1807  0019AA                     l2103:
  1808                           
  1809                           ;C:\Program Files (x86)\Microchip\xc8\v2.10\pic\sources\c99\common\doprnt.c: 300:       
      +                            --i;
  1810  0019AA  063E               	decf	dtoa@i^0,f,c
  1811  0019AC  A0D8               	btfss	status,0,c
  1812  0019AE  063F               	decf	(dtoa@i+1)^0,f,c
  1813  0019B0                     
  1814                           ;C:\Program Files (x86)\Microchip\xc8\v2.10\pic\sources\c99\common\doprnt.c: 301:       
      +                            dbuf[i] = '0' + abs(n % 10);
  1815  0019B0  0EC6               	movlw	low _dbuf
  1816  0019B2  243E               	addwf	dtoa@i^0,w,c
  1817  0019B4  6ED9               	movwf	fsr2l,c
  1818  0019B6  0E00               	movlw	high _dbuf
  1819  0019B8  203F               	addwfc	(dtoa@i+1)^0,w,c
  1820  0019BA  6EDA               	movwf	fsr2h,c
  1821  0019BC  C036  F001         	movff	dtoa@n,___aomod@dividend
  1822  0019C0  C037  F002         	movff	dtoa@n+1,___aomod@dividend+1
  1823  0019C4  C038  F003         	movff	dtoa@n+2,___aomod@dividend+2
  1824  0019C8  C039  F004         	movff	dtoa@n+3,___aomod@dividend+3
  1825  0019CC  C03A  F005         	movff	dtoa@n+4,___aomod@dividend+4
  1826  0019D0  C03B  F006         	movff	dtoa@n+5,___aomod@dividend+5
  1827  0019D4  C03C  F007         	movff	dtoa@n+6,___aomod@dividend+6
  1828  0019D8  C03D  F008         	movff	dtoa@n+7,___aomod@dividend+7
  1829  0019DC  0E0A               	movlw	10
  1830  0019DE  6E09               	movwf	___aomod@divisor^0,c
  1831  0019E0  0E00               	movlw	0
  1832  0019E2  6E0A               	movwf	(___aomod@divisor+1)^0,c
  1833  0019E4  0E00               	movlw	0
  1834  0019E6  6E0B               	movwf	(___aomod@divisor+2)^0,c
  1835  0019E8  0E00               	movlw	0
  1836  0019EA  6E0C               	movwf	(___aomod@divisor+3)^0,c
  1837  0019EC  0E00               	movlw	0
  1838  0019EE  6E0D               	movwf	(___aomod@divisor+4)^0,c
  1839  0019F0  0E00               	movlw	0
  1840  0019F2  6E0E               	movwf	(___aomod@divisor+5)^0,c
  1841  0019F4  0E00               	movlw	0
  1842  0019F6  6E0F               	movwf	(___aomod@divisor+6)^0,c
  1843  0019F8  0E00               	movlw	0
  1844  0019FA  6E10               	movwf	(___aomod@divisor+7)^0,c
  1845  0019FC  EC4B  F010         	call	___aomod	;wreg free
  1846  001A00  C001  F026         	movff	?___aomod,??_dtoa
  1847  001A04  C002  F027         	movff	?___aomod+1,??_dtoa+1
  1848  001A08  C003  F028         	movff	?___aomod+2,??_dtoa+2
  1849  001A0C  C004  F029         	movff	?___aomod+3,??_dtoa+3
  1850  001A10  C005  F02A         	movff	?___aomod+4,??_dtoa+4
  1851  001A14  C006  F02B         	movff	?___aomod+5,??_dtoa+5
  1852  001A18  C007  F02C         	movff	?___aomod+6,??_dtoa+6
  1853  001A1C  C008  F02D         	movff	?___aomod+7,??_dtoa+7
  1854  001A20  C026  F013         	movff	??_dtoa,abs@a
  1855  001A24  C028  F014         	movff	??_dtoa+2,abs@a+1
  1856  001A28  EC8C  F013         	call	_abs	;wreg free
  1857  001A2C  5013               	movf	?_abs^0,w,c
  1858  001A2E  0F30               	addlw	48
  1859  001A30  6EDF               	movwf	indf2,c
  1860  001A32                     
  1861                           ;C:\Program Files (x86)\Microchip\xc8\v2.10\pic\sources\c99\common\doprnt.c: 302:       
      +                            --p;
  1862  001A32  0630               	decf	dtoa@p^0,f,c
  1863  001A34  A0D8               	btfss	status,0,c
  1864  001A36  0631               	decf	(dtoa@p+1)^0,f,c
  1865  001A38                     
  1866                           ;C:\Program Files (x86)\Microchip\xc8\v2.10\pic\sources\c99\common\doprnt.c: 303:       
      +                            --w;
  1867  001A38  0632               	decf	dtoa@w^0,f,c
  1868  001A3A  A0D8               	btfss	status,0,c
  1869  001A3C  0633               	decf	(dtoa@w+1)^0,f,c
  1870  001A3E                     
  1871                           ;C:\Program Files (x86)\Microchip\xc8\v2.10\pic\sources\c99\common\doprnt.c: 304:       
      +                            n = n / 10;
  1872  001A3E  C036  F001         	movff	dtoa@n,___aodiv@dividend
  1873  001A42  C037  F002         	movff	dtoa@n+1,___aodiv@dividend+1
  1874  001A46  C038  F003         	movff	dtoa@n+2,___aodiv@dividend+2
  1875  001A4A  C039  F004         	movff	dtoa@n+3,___aodiv@dividend+3
  1876  001A4E  C03A  F005         	movff	dtoa@n+4,___aodiv@dividend+4
  1877  001A52  C03B  F006         	movff	dtoa@n+5,___aodiv@dividend+5
  1878  001A56  C03C  F007         	movff	dtoa@n+6,___aodiv@dividend+6
  1879  001A5A  C03D  F008         	movff	dtoa@n+7,___aodiv@dividend+7
  1880  001A5E  0E0A               	movlw	10
  1881  001A60  6E09               	movwf	___aodiv@divisor^0,c
  1882  001A62  0E00               	movlw	0
  1883  001A64  6E0A               	movwf	(___aodiv@divisor+1)^0,c
  1884  001A66  0E00               	movlw	0
  1885  001A68  6E0B               	movwf	(___aodiv@divisor+2)^0,c
  1886  001A6A  0E00               	movlw	0
  1887  001A6C  6E0C               	movwf	(___aodiv@divisor+3)^0,c
  1888  001A6E  0E00               	movlw	0
  1889  001A70  6E0D               	movwf	(___aodiv@divisor+4)^0,c
  1890  001A72  0E00               	movlw	0
  1891  001A74  6E0E               	movwf	(___aodiv@divisor+5)^0,c
  1892  001A76  0E00               	movlw	0
  1893  001A78  6E0F               	movwf	(___aodiv@divisor+6)^0,c
  1894  001A7A  0E00               	movlw	0
  1895  001A7C  6E10               	movwf	(___aodiv@divisor+7)^0,c
  1896  001A7E  EC87  F00F         	call	___aodiv	;wreg free
  1897  001A82  C001  F036         	movff	?___aodiv,dtoa@n
  1898  001A86  C002  F037         	movff	?___aodiv+1,dtoa@n+1
  1899  001A8A  C003  F038         	movff	?___aodiv+2,dtoa@n+2
  1900  001A8E  C004  F039         	movff	?___aodiv+3,dtoa@n+3
  1901  001A92  C005  F03A         	movff	?___aodiv+4,dtoa@n+4
  1902  001A96  C006  F03B         	movff	?___aodiv+5,dtoa@n+5
  1903  001A9A  C007  F03C         	movff	?___aodiv+6,dtoa@n+6
  1904  001A9E  C008  F03D         	movff	?___aodiv+7,dtoa@n+7
  1905  001AA2                     l2113:
  1906                           
  1907                           ;C:\Program Files (x86)\Microchip\xc8\v2.10\pic\sources\c99\common\doprnt.c: 299:     wh
      +                          ile (!(i < 1) && (n || (0 < p) || ((0 < w) && (flags & (1 << 1))))) {
  1908  001AA2  BE3F               	btfsc	(dtoa@i+1)^0,7,c
  1909  001AA4  EF5C  F00D         	goto	u1901
  1910  001AA8  503F               	movf	(dtoa@i+1)^0,w,c
  1911  001AAA  E108               	bnz	u1900
  1912  001AAC  043E               	decf	dtoa@i^0,w,c
  1913  001AAE  A0D8               	btfss	status,0,c
  1914  001AB0  EF5C  F00D         	goto	u1901
  1915  001AB4  EF5E  F00D         	goto	u1900
  1916  001AB8                     u1901:
  1917  001AB8  EF8F  F00D         	goto	l2123
  1918  001ABC                     u1900:
  1919  001ABC  5036               	movf	dtoa@n^0,w,c
  1920  001ABE  1037               	iorwf	(dtoa@n+1)^0,w,c
  1921  001AC0  1038               	iorwf	(dtoa@n+2)^0,w,c
  1922  001AC2  1039               	iorwf	(dtoa@n+3)^0,w,c
  1923  001AC4  103A               	iorwf	(dtoa@n+4)^0,w,c
  1924  001AC6  103B               	iorwf	(dtoa@n+5)^0,w,c
  1925  001AC8  103C               	iorwf	(dtoa@n+6)^0,w,c
  1926  001ACA  103D               	iorwf	(dtoa@n+7)^0,w,c
  1927  001ACC  A4D8               	btfss	status,2,c
  1928  001ACE  EF6B  F00D         	goto	u1911
  1929  001AD2  EF6D  F00D         	goto	u1910
  1930  001AD6                     u1911:
  1931  001AD6  EFD5  F00C         	goto	l2103
  1932  001ADA                     u1910:
  1933  001ADA  BE31               	btfsc	(dtoa@p+1)^0,7,c
  1934  001ADC  EF7A  F00D         	goto	u1920
  1935  001AE0  5031               	movf	(dtoa@p+1)^0,w,c
  1936  001AE2  E106               	bnz	u1921
  1937  001AE4  0430               	decf	dtoa@p^0,w,c
  1938  001AE6  B0D8               	btfsc	status,0,c
  1939  001AE8  EF78  F00D         	goto	u1921
  1940  001AEC  EF7A  F00D         	goto	u1920
  1941  001AF0                     u1921:
  1942  001AF0  EFD5  F00C         	goto	l2103
  1943  001AF4                     u1920:
  1944  001AF4  BE33               	btfsc	(dtoa@w+1)^0,7,c
  1945  001AF6  EF85  F00D         	goto	u1931
  1946  001AFA  5033               	movf	(dtoa@w+1)^0,w,c
  1947  001AFC  E108               	bnz	u1930
  1948  001AFE  0432               	decf	dtoa@w^0,w,c
  1949  001B00  A0D8               	btfss	status,0,c
  1950  001B02  EF85  F00D         	goto	u1931
  1951  001B06  EF87  F00D         	goto	u1930
  1952  001B0A                     u1931:
  1953  001B0A  EF8F  F00D         	goto	l2123
  1954  001B0E                     u1930:
  1955  001B0E  0100               	movlb	0	; () banked
  1956  001B10  B3C4               	btfsc	_flags& (0+255),1,b
  1957  001B12  EF8D  F00D         	goto	u1941
  1958  001B16  EF8F  F00D         	goto	u1940
  1959  001B1A                     u1941:
  1960  001B1A  EFD5  F00C         	goto	l2103
  1961  001B1E                     u1940:
  1962  001B1E                     l2123:
  1963                           
  1964                           ;C:\Program Files (x86)\Microchip\xc8\v2.10\pic\sources\c99\common\doprnt.c: 308:     if
      +                           (s || (flags & (1 << 2))) {
  1965  001B1E  5034               	movf	dtoa@s^0,w,c
  1966  001B20  1035               	iorwf	(dtoa@s+1)^0,w,c
  1967  001B22  A4D8               	btfss	status,2,c
  1968  001B24  EF96  F00D         	goto	u1951
  1969  001B28  EF98  F00D         	goto	u1950
  1970  001B2C                     u1951:
  1971  001B2C  EFA0  F00D         	goto	l2127
  1972  001B30                     u1950:
  1973  001B30  0100               	movlb	0	; () banked
  1974  001B32  A5C4               	btfss	_flags& (0+255),2,b
  1975  001B34  EF9E  F00D         	goto	u1961
  1976  001B38  EFA0  F00D         	goto	u1960
  1977  001B3C                     u1961:
  1978  001B3C  EFBE  F00D         	goto	l2137
  1979  001B40                     u1960:
  1980  001B40                     l2127:
  1981                           
  1982                           ;C:\Program Files (x86)\Microchip\xc8\v2.10\pic\sources\c99\common\doprnt.c: 309:       
      +                            --i;
  1983  001B40  063E               	decf	dtoa@i^0,f,c
  1984  001B42  A0D8               	btfss	status,0,c
  1985  001B44  063F               	decf	(dtoa@i+1)^0,f,c
  1986  001B46                     
  1987                           ;C:\Program Files (x86)\Microchip\xc8\v2.10\pic\sources\c99\common\doprnt.c: 310:       
      +                            dbuf[i] = s ? '-' : '+';
  1988  001B46  5034               	movf	dtoa@s^0,w,c
  1989  001B48  1035               	iorwf	(dtoa@s+1)^0,w,c
  1990  001B4A  A4D8               	btfss	status,2,c
  1991  001B4C  EFAA  F00D         	goto	u1971
  1992  001B50  EFAC  F00D         	goto	u1970
  1993  001B54                     u1971:
  1994  001B54  EFB2  F00D         	goto	l2133
  1995  001B58                     u1970:
  1996  001B58  0E00               	movlw	0
  1997  001B5A  6E2F               	movwf	(_dtoa$288+1)^0,c
  1998  001B5C  0E2B               	movlw	43
  1999  001B5E  6E2E               	movwf	_dtoa$288^0,c
  2000  001B60  EFB6  F00D         	goto	l2135
  2001  001B64                     l2133:
  2002  001B64  0E00               	movlw	0
  2003  001B66  6E2F               	movwf	(_dtoa$288+1)^0,c
  2004  001B68  0E2D               	movlw	45
  2005  001B6A  6E2E               	movwf	_dtoa$288^0,c
  2006  001B6C                     l2135:
  2007  001B6C  0EC6               	movlw	low _dbuf
  2008  001B6E  243E               	addwf	dtoa@i^0,w,c
  2009  001B70  6ED9               	movwf	fsr2l,c
  2010  001B72  0E00               	movlw	high _dbuf
  2011  001B74  203F               	addwfc	(dtoa@i+1)^0,w,c
  2012  001B76  6EDA               	movwf	fsr2h,c
  2013  001B78  C02E  FFDF         	movff	_dtoa$288,indf2
  2014  001B7C                     l2137:
  2015                           
  2016                           ;C:\Program Files (x86)\Microchip\xc8\v2.10\pic\sources\c99\common\doprnt.c: 314:     re
      +                          turn pad(fp, &dbuf[i], w);
  2017  001B7C  C01C  F011         	movff	dtoa@fp,pad@fp
  2018  001B80  C01D  F012         	movff	dtoa@fp+1,pad@fp+1
  2019  001B84  0EC6               	movlw	low _dbuf
  2020  001B86  243E               	addwf	dtoa@i^0,w,c
  2021  001B88  6E13               	movwf	pad@buf^0,c
  2022  001B8A  0E00               	movlw	high _dbuf
  2023  001B8C  203F               	addwfc	(dtoa@i+1)^0,w,c
  2024  001B8E  6E14               	movwf	(pad@buf+1)^0,c
  2025  001B90  C032  F015         	movff	dtoa@w,pad@p
  2026  001B94  C033  F016         	movff	dtoa@w+1,pad@p+1
  2027  001B98  ECE5  F011         	call	_pad	;wreg free
  2028  001B9C  C011  F01C         	movff	?_pad,?_dtoa
  2029  001BA0  C012  F01D         	movff	?_pad+1,?_dtoa+1
  2030  001BA4  0012               	return		;funcret
  2031  001BA6                     __end_of_dtoa:
  2032                           	opt callstack 0
  2033                           
  2034 ;; *************** function _pad *****************
  2035 ;; Defined at:
  2036 ;;		line 72 in file "C:\Program Files (x86)\Microchip\xc8\v2.10\pic\sources\c99\common\doprnt.c"
  2037 ;; Parameters:    Size  Location     Type
  2038 ;;  fp              2   16[COMRAM] PTR struct _IO_FILE
  2039 ;;		 -> sprintf@f(6), 
  2040 ;;  buf             2   18[COMRAM] PTR unsigned char 
  2041 ;;		 -> dbuf(32), 
  2042 ;;  p               2   20[COMRAM] int 
  2043 ;; Auto vars:     Size  Location     Type
  2044 ;;  w               2   25[COMRAM] int 
  2045 ;;  i               2   23[COMRAM] int 
  2046 ;; Return value:  Size  Location     Type
  2047 ;;                  2   16[COMRAM] int 
  2048 ;; Registers used:
  2049 ;;		wreg, fsr1l, fsr1h, fsr2l, fsr2h, status,2, status,0, cstack
  2050 ;; Tracked objects:
  2051 ;;		On entry : 0/0
  2052 ;;		On exit  : 0/0
  2053 ;;		Unchanged: 0/0
  2054 ;; Data sizes:     COMRAM   BANK0   BANK1   BANK2   BANK3   BANK4   BANK5   BANK6   BANK7
  2055 ;;      Params:         6       0       0       0       0       0       0       0       0
  2056 ;;      Locals:         4       0       0       0       0       0       0       0       0
  2057 ;;      Temps:          1       0       0       0       0       0       0       0       0
  2058 ;;      Totals:        11       0       0       0       0       0       0       0       0
  2059 ;;Total ram usage:       11 bytes
  2060 ;; Hardware stack levels used:    1
  2061 ;; Hardware stack levels required when called:    3
  2062 ;; This function calls:
  2063 ;;		_fputc
  2064 ;;		_fputs
  2065 ;;		_strlen
  2066 ;; This function is called by:
  2067 ;;		_dtoa
  2068 ;; This function uses a non-reentrant model
  2069 ;;
  2070                           
  2071                           	psect	text5
  2072  0023CA                     __ptext5:
  2073                           	opt callstack 0
  2074  0023CA                     _pad:
  2075                           	opt callstack 23
  2076  0023CA                     
  2077                           ;C:\Program Files (x86)\Microchip\xc8\v2.10\pic\sources\c99\common\doprnt.c: 72: static 
      +                          int pad(FILE *fp, char *buf, int p);C:\Program Files (x86)\Microchip\xc8\v2.10\pic\sourc
      +                          es\c99\common\doprnt.c: 73: {;C:\Program Files (x86)\Microchip\xc8\v2.10\pic\sources\c99
      +                          \common\doprnt.c: 74:     int i, w;;C:\Program Files (x86)\Microchip\xc8\v2.10\pic\sourc
      +                          es\c99\common\doprnt.c: 77:     if (flags & (1 << 0)) {
  2078  0023CA  0100               	movlb	0	; () banked
  2079  0023CC  A1C4               	btfss	_flags& (0+255),0,b
  2080  0023CE  EFEB  F011         	goto	u1631
  2081  0023D2  EFED  F011         	goto	u1630
  2082  0023D6                     u1631:
  2083  0023D6  EFF7  F011         	goto	l1967
  2084  0023DA                     u1630:
  2085  0023DA                     
  2086                           ; BSR set to: 0
  2087                           ;C:\Program Files (x86)\Microchip\xc8\v2.10\pic\sources\c99\common\doprnt.c: 78:        
      +                           fputs((const char *)buf, fp);
  2088  0023DA  C013  F00A         	movff	pad@buf,fputs@s
  2089  0023DE  C014  F00B         	movff	pad@buf+1,fputs@s+1
  2090  0023E2  C011  F00C         	movff	pad@fp,fputs@fp
  2091  0023E6  C012  F00D         	movff	pad@fp+1,fputs@fp+1
  2092  0023EA  EC6A  F013         	call	_fputs	;wreg free
  2093  0023EE                     l1967:
  2094                           
  2095                           ;C:\Program Files (x86)\Microchip\xc8\v2.10\pic\sources\c99\common\doprnt.c: 82:     w =
      +                           (p < 0) ? 0 : p;
  2096  0023EE  BE16               	btfsc	(pad@p+1)^0,7,c
  2097  0023F0  EFFC  F011         	goto	u1641
  2098  0023F4  EFFE  F011         	goto	u1640
  2099  0023F8                     u1641:
  2100  0023F8  EF04  F012         	goto	l1971
  2101  0023FC                     u1640:
  2102  0023FC  C015  F01A         	movff	pad@p,pad@w
  2103  002400  C016  F01B         	movff	pad@p+1,pad@w+1
  2104  002404  EF08  F012         	goto	l151
  2105  002408                     l1971:
  2106  002408  0E00               	movlw	0
  2107  00240A  6E1B               	movwf	(pad@w+1)^0,c
  2108  00240C  0E00               	movlw	0
  2109  00240E  6E1A               	movwf	pad@w^0,c
  2110  002410                     l151:
  2111                           
  2112                           ;C:\Program Files (x86)\Microchip\xc8\v2.10\pic\sources\c99\common\doprnt.c: 83:     i =
      +                           0;
  2113  002410  0E00               	movlw	0
  2114  002412  6E19               	movwf	(pad@i+1)^0,c
  2115  002414  0E00               	movlw	0
  2116  002416  6E18               	movwf	pad@i^0,c
  2117                           
  2118                           ;C:\Program Files (x86)\Microchip\xc8\v2.10\pic\sources\c99\common\doprnt.c: 84:     whi
      +                          le (i < w) {
  2119  002418  EF1A  F012         	goto	l1977
  2120  00241C                     l1973:
  2121                           
  2122                           ;C:\Program Files (x86)\Microchip\xc8\v2.10\pic\sources\c99\common\doprnt.c: 85:        
      +                           fputc(' ', fp);
  2123  00241C  0E00               	movlw	0
  2124  00241E  6E02               	movwf	(fputc@c+1)^0,c
  2125  002420  0E20               	movlw	32
  2126  002422  6E01               	movwf	fputc@c^0,c
  2127  002424  C011  F003         	movff	pad@fp,fputc@fp
  2128  002428  C012  F004         	movff	pad@fp+1,fputc@fp+1
  2129  00242C  EC80  F011         	call	_fputc	;wreg free
  2130  002430                     
  2131                           ;C:\Program Files (x86)\Microchip\xc8\v2.10\pic\sources\c99\common\doprnt.c: 86:        
      +                           ++i;
  2132  002430  4A18               	infsnz	pad@i^0,f,c
  2133  002432  2A19               	incf	(pad@i+1)^0,f,c
  2134  002434                     l1977:
  2135                           
  2136                           ;C:\Program Files (x86)\Microchip\xc8\v2.10\pic\sources\c99\common\doprnt.c: 84:     whi
      +                          le (i < w) {
  2137  002434  501A               	movf	pad@w^0,w,c
  2138  002436  5C18               	subwf	pad@i^0,w,c
  2139  002438  5019               	movf	(pad@i+1)^0,w,c
  2140  00243A  0A80               	xorlw	128
  2141  00243C  6E17               	movwf	??_pad^0,c
  2142  00243E  501B               	movf	(pad@w+1)^0,w,c
  2143  002440  0A80               	xorlw	128
  2144  002442  5817               	subwfb	??_pad^0,w,c
  2145  002444  A0D8               	btfss	status,0,c
  2146  002446  EF27  F012         	goto	u1651
  2147  00244A  EF29  F012         	goto	u1650
  2148  00244E                     u1651:
  2149  00244E  EF0E  F012         	goto	l1973
  2150  002452                     u1650:
  2151  002452                     
  2152                           ;C:\Program Files (x86)\Microchip\xc8\v2.10\pic\sources\c99\common\doprnt.c: 90:     if 
      +                          (!(flags & (1 << 0))) {
  2153  002452  0100               	movlb	0	; () banked
  2154  002454  B1C4               	btfsc	_flags& (0+255),0,b
  2155  002456  EF2F  F012         	goto	u1661
  2156  00245A  EF31  F012         	goto	u1660
  2157  00245E                     u1661:
  2158  00245E  EF3B  F012         	goto	l1981
  2159  002462                     u1660:
  2160  002462                     
  2161                           ; BSR set to: 0
  2162                           ;C:\Program Files (x86)\Microchip\xc8\v2.10\pic\sources\c99\common\doprnt.c: 91:        
      +                           fputs((const char *)buf, fp);
  2163  002462  C013  F00A         	movff	pad@buf,fputs@s
  2164  002466  C014  F00B         	movff	pad@buf+1,fputs@s+1
  2165  00246A  C011  F00C         	movff	pad@fp,fputs@fp
  2166  00246E  C012  F00D         	movff	pad@fp+1,fputs@fp+1
  2167  002472  EC6A  F013         	call	_fputs	;wreg free
  2168  002476                     l1981:
  2169                           
  2170                           ;C:\Program Files (x86)\Microchip\xc8\v2.10\pic\sources\c99\common\doprnt.c: 94:     ret
      +                          urn strlen(buf) + w;
  2171  002476  C013  F001         	movff	pad@buf,strlen@s
  2172  00247A  C014  F002         	movff	pad@buf+1,strlen@s+1
  2173  00247E  ECCC  F013         	call	_strlen	;wreg free
  2174  002482  501A               	movf	pad@w^0,w,c
  2175  002484  2401               	addwf	?_strlen^0,w,c
  2176  002486  6E11               	movwf	?_pad^0,c
  2177  002488  501B               	movf	(pad@w+1)^0,w,c
  2178  00248A  2002               	addwfc	(?_strlen+1)^0,w,c
  2179  00248C  6E12               	movwf	(?_pad+1)^0,c
  2180  00248E  0012               	return		;funcret
  2181  002490                     __end_of_pad:
  2182                           	opt callstack 0
  2183                           
  2184 ;; *************** function _strlen *****************
  2185 ;; Defined at:
  2186 ;;		line 5 in file "C:\Program Files (x86)\Microchip\xc8\v2.10\pic\sources\c99\common\strlen.c"
  2187 ;; Parameters:    Size  Location     Type
  2188 ;;  s               2    0[COMRAM] PTR const unsigned char 
  2189 ;;		 -> dbuf(32), 
  2190 ;; Auto vars:     Size  Location     Type
  2191 ;;  a               2    2[COMRAM] PTR const unsigned char 
  2192 ;;		 -> dbuf(32), 
  2193 ;; Return value:  Size  Location     Type
  2194 ;;                  2    0[COMRAM] unsigned int 
  2195 ;; Registers used:
  2196 ;;		wreg, fsr2l, fsr2h, status,2, status,0
  2197 ;; Tracked objects:
  2198 ;;		On entry : 0/0
  2199 ;;		On exit  : 0/0
  2200 ;;		Unchanged: 0/0
  2201 ;; Data sizes:     COMRAM   BANK0   BANK1   BANK2   BANK3   BANK4   BANK5   BANK6   BANK7
  2202 ;;      Params:         2       0       0       0       0       0       0       0       0
  2203 ;;      Locals:         2       0       0       0       0       0       0       0       0
  2204 ;;      Temps:          0       0       0       0       0       0       0       0       0
  2205 ;;      Totals:         4       0       0       0       0       0       0       0       0
  2206 ;;Total ram usage:        4 bytes
  2207 ;; Hardware stack levels used:    1
  2208 ;; This function calls:
  2209 ;;		Nothing
  2210 ;; This function is called by:
  2211 ;;		_pad
  2212 ;; This function uses a non-reentrant model
  2213 ;;
  2214                           
  2215                           	psect	text6
  2216  002798                     __ptext6:
  2217                           	opt callstack 0
  2218  002798                     _strlen:
  2219                           	opt callstack 25
  2220  002798  C001  F003         	movff	strlen@s,strlen@a
  2221  00279C  C002  F004         	movff	strlen@s+1,strlen@a+1
  2222  0027A0  EFD4  F013         	goto	l1957
  2223  0027A4                     l1955:
  2224  0027A4  4A01               	infsnz	strlen@s^0,f,c
  2225  0027A6  2A02               	incf	(strlen@s+1)^0,f,c
  2226  0027A8                     l1957:
  2227  0027A8  C001  FFD9         	movff	strlen@s,fsr2l
  2228  0027AC  C002  FFDA         	movff	strlen@s+1,fsr2h
  2229  0027B0  50DF               	movf	indf2,w,c
  2230  0027B2  A4D8               	btfss	status,2,c
  2231  0027B4  EFDE  F013         	goto	u1621
  2232  0027B8  EFE0  F013         	goto	u1620
  2233  0027BC                     u1621:
  2234  0027BC  EFD2  F013         	goto	l1955
  2235  0027C0                     u1620:
  2236  0027C0  5003               	movf	strlen@a^0,w,c
  2237  0027C2  5C01               	subwf	strlen@s^0,w,c
  2238  0027C4  6E01               	movwf	?_strlen^0,c
  2239  0027C6  5004               	movf	(strlen@a+1)^0,w,c
  2240  0027C8  5802               	subwfb	(strlen@s+1)^0,w,c
  2241  0027CA  6E02               	movwf	(?_strlen+1)^0,c
  2242  0027CC  0012               	return		;funcret
  2243  0027CE                     __end_of_strlen:
  2244                           	opt callstack 0
  2245                           
  2246 ;; *************** function _fputs *****************
  2247 ;; Defined at:
  2248 ;;		line 8 in file "C:\Program Files (x86)\Microchip\xc8\v2.10\pic\sources\c99\common\nf_fputs.c"
  2249 ;; Parameters:    Size  Location     Type
  2250 ;;  s               2    9[COMRAM] PTR const unsigned char 
  2251 ;;		 -> dbuf(32), 
  2252 ;;  fp              2   11[COMRAM] PTR struct _IO_FILE
  2253 ;;		 -> sprintf@f(6), 
  2254 ;; Auto vars:     Size  Location     Type
  2255 ;;  i               2   14[COMRAM] int 
  2256 ;;  c               1   13[COMRAM] unsigned char 
  2257 ;; Return value:  Size  Location     Type
  2258 ;;                  2    9[COMRAM] int 
  2259 ;; Registers used:
  2260 ;;		wreg, fsr1l, fsr1h, fsr2l, fsr2h, status,2, status,0, cstack
  2261 ;; Tracked objects:
  2262 ;;		On entry : 0/0
  2263 ;;		On exit  : 0/0
  2264 ;;		Unchanged: 0/0
  2265 ;; Data sizes:     COMRAM   BANK0   BANK1   BANK2   BANK3   BANK4   BANK5   BANK6   BANK7
  2266 ;;      Params:         4       0       0       0       0       0       0       0       0
  2267 ;;      Locals:         3       0       0       0       0       0       0       0       0
  2268 ;;      Temps:          0       0       0       0       0       0       0       0       0
  2269 ;;      Totals:         7       0       0       0       0       0       0       0       0
  2270 ;;Total ram usage:        7 bytes
  2271 ;; Hardware stack levels used:    1
  2272 ;; Hardware stack levels required when called:    2
  2273 ;; This function calls:
  2274 ;;		_fputc
  2275 ;; This function is called by:
  2276 ;;		_pad
  2277 ;; This function uses a non-reentrant model
  2278 ;;
  2279                           
  2280                           	psect	text7
  2281  0026D4                     __ptext7:
  2282                           	opt callstack 0
  2283  0026D4                     _fputs:
  2284                           	opt callstack 23
  2285  0026D4  0E00               	movlw	0
  2286  0026D6  6E10               	movwf	(fputs@i+1)^0,c
  2287  0026D8  0E00               	movlw	0
  2288  0026DA  6E0F               	movwf	fputs@i^0,c
  2289  0026DC  EF7B  F013         	goto	l1951
  2290  0026E0                     l1947:
  2291  0026E0  C00E  F001         	movff	fputs@c,fputc@c
  2292  0026E4  6A02               	clrf	(fputc@c+1)^0,c
  2293  0026E6  C00C  F003         	movff	fputs@fp,fputc@fp
  2294  0026EA  C00D  F004         	movff	fputs@fp+1,fputc@fp+1
  2295  0026EE  EC80  F011         	call	_fputc	;wreg free
  2296  0026F2  4A0F               	infsnz	fputs@i^0,f,c
  2297  0026F4  2A10               	incf	(fputs@i+1)^0,f,c
  2298  0026F6                     l1951:
  2299  0026F6  500F               	movf	fputs@i^0,w,c
  2300  0026F8  240A               	addwf	fputs@s^0,w,c
  2301  0026FA  6ED9               	movwf	fsr2l,c
  2302  0026FC  5010               	movf	(fputs@i+1)^0,w,c
  2303  0026FE  200B               	addwfc	(fputs@s+1)^0,w,c
  2304  002700  6EDA               	movwf	fsr2h,c
  2305  002702  50DF               	movf	indf2,w,c
  2306  002704  6E0E               	movwf	fputs@c^0,c
  2307  002706  500E               	movf	fputs@c^0,w,c
  2308  002708  A4D8               	btfss	status,2,c
  2309  00270A  EF89  F013         	goto	u1611
  2310  00270E  EF8B  F013         	goto	u1610
  2311  002712                     u1611:
  2312  002712  EF70  F013         	goto	l1947
  2313  002716                     u1610:
  2314  002716  0012               	return		;funcret
  2315  002718                     __end_of_fputs:
  2316                           	opt callstack 0
  2317                           
  2318 ;; *************** function _fputc *****************
  2319 ;; Defined at:
  2320 ;;		line 8 in file "C:\Program Files (x86)\Microchip\xc8\v2.10\pic\sources\c99\common\nf_fputc.c"
  2321 ;; Parameters:    Size  Location     Type
  2322 ;;  c               2    0[COMRAM] int 
  2323 ;;  fp              2    2[COMRAM] PTR struct _IO_FILE
  2324 ;;		 -> sprintf@f(6), 
  2325 ;; Auto vars:     Size  Location     Type
  2326 ;;		None
  2327 ;; Return value:  Size  Location     Type
  2328 ;;                  2    0[COMRAM] int 
  2329 ;; Registers used:
  2330 ;;		wreg, fsr1l, fsr1h, fsr2l, fsr2h, status,2, status,0, cstack
  2331 ;; Tracked objects:
  2332 ;;		On entry : 0/0
  2333 ;;		On exit  : 0/0
  2334 ;;		Unchanged: 0/0
  2335 ;; Data sizes:     COMRAM   BANK0   BANK1   BANK2   BANK3   BANK4   BANK5   BANK6   BANK7
  2336 ;;      Params:         4       0       0       0       0       0       0       0       0
  2337 ;;      Locals:         0       0       0       0       0       0       0       0       0
  2338 ;;      Temps:          5       0       0       0       0       0       0       0       0
  2339 ;;      Totals:         9       0       0       0       0       0       0       0       0
  2340 ;;Total ram usage:        9 bytes
  2341 ;; Hardware stack levels used:    1
  2342 ;; Hardware stack levels required when called:    1
  2343 ;; This function calls:
  2344 ;;		_putch
  2345 ;; This function is called by:
  2346 ;;		_pad
  2347 ;;		_vfpfcnvrt
  2348 ;;		_fputs
  2349 ;; This function uses a non-reentrant model
  2350 ;;
  2351                           
  2352                           	psect	text8
  2353  002300                     __ptext8:
  2354                           	opt callstack 0
  2355  002300                     _fputc:
  2356                           	opt callstack 26
  2357  002300  5003               	movf	fputc@fp^0,w,c
  2358  002302  1004               	iorwf	(fputc@fp+1)^0,w,c
  2359  002304  B4D8               	btfsc	status,2,c
  2360  002306  EF87  F011         	goto	u1571
  2361  00230A  EF89  F011         	goto	u1570
  2362  00230E                     u1571:
  2363  00230E  EF92  F011         	goto	l1935
  2364  002312                     u1570:
  2365  002312  5003               	movf	fputc@fp^0,w,c
  2366  002314  1004               	iorwf	(fputc@fp+1)^0,w,c
  2367  002316  A4D8               	btfss	status,2,c
  2368  002318  EF90  F011         	goto	u1581
  2369  00231C  EF92  F011         	goto	u1580
  2370  002320                     u1581:
  2371  002320  EF97  F011         	goto	l1937
  2372  002324                     u1580:
  2373  002324                     l1935:
  2374  002324  5001               	movf	fputc@c^0,w,c
  2375  002326  EC49  F014         	call	_putch
  2376  00232A  EFE4  F011         	goto	l889
  2377  00232E                     l1937:
  2378  00232E  EE20 F004          	lfsr	2,4
  2379  002332  5003               	movf	fputc@fp^0,w,c
  2380  002334  26D9               	addwf	fsr2l,f,c
  2381  002336  5004               	movf	(fputc@fp+1)^0,w,c
  2382  002338  22DA               	addwfc	fsr2h,f,c
  2383  00233A  50DE               	movf	postinc2,w,c
  2384  00233C  10DE               	iorwf	postinc2,w,c
  2385  00233E  B4D8               	btfsc	status,2,c
  2386  002340  EFA4  F011         	goto	u1591
  2387  002344  EFA6  F011         	goto	u1590
  2388  002348                     u1591:
  2389  002348  EFC1  F011         	goto	l1941
  2390  00234C                     u1590:
  2391  00234C  EE20 F004          	lfsr	2,4
  2392  002350  5003               	movf	fputc@fp^0,w,c
  2393  002352  26D9               	addwf	fsr2l,f,c
  2394  002354  5004               	movf	(fputc@fp+1)^0,w,c
  2395  002356  22DA               	addwfc	fsr2h,f,c
  2396  002358  EE10 F002          	lfsr	1,2
  2397  00235C  5003               	movf	fputc@fp^0,w,c
  2398  00235E  26E1               	addwf	fsr1l,f,c
  2399  002360  5004               	movf	(fputc@fp+1)^0,w,c
  2400  002362  22E2               	addwfc	fsr1h,f,c
  2401  002364  50DE               	movf	postinc2,w,c
  2402  002366  5CE6               	subwf	postinc1,w,c
  2403  002368  50E6               	movf	postinc1,w,c
  2404  00236A  0A80               	xorlw	128
  2405  00236C  6E09               	movwf	(??_fputc+4)^0,c
  2406  00236E  50DE               	movf	postinc2,w,c
  2407  002370  0A80               	xorlw	128
  2408  002372  5809               	subwfb	(??_fputc+4)^0,w,c
  2409  002374  B0D8               	btfsc	status,0,c
  2410  002376  EFBF  F011         	goto	u1601
  2411  00237A  EFC1  F011         	goto	u1600
  2412  00237E                     u1601:
  2413  00237E  EFE4  F011         	goto	l889
  2414  002382                     u1600:
  2415  002382                     l1941:
  2416  002382  EE20 F002          	lfsr	2,2
  2417  002386  5003               	movf	fputc@fp^0,w,c
  2418  002388  26D9               	addwf	fsr2l,f,c
  2419  00238A  5004               	movf	(fputc@fp+1)^0,w,c
  2420  00238C  22DA               	addwfc	fsr2h,f,c
  2421  00238E  CFDE F005          	movff	postinc2,??_fputc
  2422  002392  CFDD F006          	movff	postdec2,??_fputc+1
  2423  002396  C003  FFD9         	movff	fputc@fp,fsr2l
  2424  00239A  C004  FFDA         	movff	fputc@fp+1,fsr2h
  2425  00239E  CFDE F007          	movff	postinc2,??_fputc+2
  2426  0023A2  CFDD F008          	movff	postdec2,??_fputc+3
  2427  0023A6  5005               	movf	??_fputc^0,w,c
  2428  0023A8  2407               	addwf	(??_fputc+2)^0,w,c
  2429  0023AA  6ED9               	movwf	fsr2l,c
  2430  0023AC  5006               	movf	(??_fputc+1)^0,w,c
  2431  0023AE  2008               	addwfc	(??_fputc+3)^0,w,c
  2432  0023B0  6EDA               	movwf	fsr2h,c
  2433  0023B2  C001  FFDF         	movff	fputc@c,indf2
  2434  0023B6  EE20 F002          	lfsr	2,2
  2435  0023BA  5003               	movf	fputc@fp^0,w,c
  2436  0023BC  26D9               	addwf	fsr2l,f,c
  2437  0023BE  5004               	movf	(fputc@fp+1)^0,w,c
  2438  0023C0  22DA               	addwfc	fsr2h,f,c
  2439  0023C2  2ADE               	incf	postinc2,f,c
  2440  0023C4  0E00               	movlw	0
  2441  0023C6  22DD               	addwfc	postdec2,f,c
  2442  0023C8                     l889:
  2443  0023C8  0012               	return		;funcret
  2444  0023CA                     __end_of_fputc:
  2445                           	opt callstack 0
  2446                           
  2447 ;; *************** function _putch *****************
  2448 ;; Defined at:
  2449 ;;		line 7 in file "C:\Program Files (x86)\Microchip\xc8\v2.10\pic\sources\c99\common\putch.c"
  2450 ;; Parameters:    Size  Location     Type
  2451 ;;  c               1    wreg     unsigned char 
  2452 ;; Auto vars:     Size  Location     Type
  2453 ;;  c               1    0[COMRAM] unsigned char 
  2454 ;; Return value:  Size  Location     Type
  2455 ;;                  1    wreg      void 
  2456 ;; Registers used:
  2457 ;;		wreg
  2458 ;; Tracked objects:
  2459 ;;		On entry : 0/0
  2460 ;;		On exit  : 0/0
  2461 ;;		Unchanged: 0/0
  2462 ;; Data sizes:     COMRAM   BANK0   BANK1   BANK2   BANK3   BANK4   BANK5   BANK6   BANK7
  2463 ;;      Params:         0       0       0       0       0       0       0       0       0
  2464 ;;      Locals:         0       0       0       0       0       0       0       0       0
  2465 ;;      Temps:          0       0       0       0       0       0       0       0       0
  2466 ;;      Totals:         0       0       0       0       0       0       0       0       0
  2467 ;;Total ram usage:        0 bytes
  2468 ;; Hardware stack levels used:    1
  2469 ;; This function calls:
  2470 ;;		Nothing
  2471 ;; This function is called by:
  2472 ;;		_fputc
  2473 ;; This function uses a non-reentrant model
  2474 ;;
  2475                           
  2476                           	psect	text9
  2477  002892                     __ptext9:
  2478                           	opt callstack 0
  2479  002892                     _putch:
  2480                           	opt callstack 26
  2481  002892  0012               	return		;funcret
  2482  002894                     __end_of_putch:
  2483                           	opt callstack 0
  2484                           
  2485 ;; *************** function _abs *****************
  2486 ;; Defined at:
  2487 ;;		line 1 in file "C:\Program Files (x86)\Microchip\xc8\v2.10\pic\sources\c99\common\abs.c"
  2488 ;; Parameters:    Size  Location     Type
  2489 ;;  a               2   18[COMRAM] int 
  2490 ;; Auto vars:     Size  Location     Type
  2491 ;;		None
  2492 ;; Return value:  Size  Location     Type
  2493 ;;                  2   18[COMRAM] int 
  2494 ;; Registers used:
  2495 ;;		wreg, status,2, status,0
  2496 ;; Tracked objects:
  2497 ;;		On entry : 0/0
  2498 ;;		On exit  : 0/0
  2499 ;;		Unchanged: 0/0
  2500 ;; Data sizes:     COMRAM   BANK0   BANK1   BANK2   BANK3   BANK4   BANK5   BANK6   BANK7
  2501 ;;      Params:         2       0       0       0       0       0       0       0       0
  2502 ;;      Locals:         0       0       0       0       0       0       0       0       0
  2503 ;;      Temps:          2       0       0       0       0       0       0       0       0
  2504 ;;      Totals:         4       0       0       0       0       0       0       0       0
  2505 ;;Total ram usage:        4 bytes
  2506 ;; Hardware stack levels used:    1
  2507 ;; This function calls:
  2508 ;;		Nothing
  2509 ;; This function is called by:
  2510 ;;		_dtoa
  2511 ;; This function uses a non-reentrant model
  2512 ;;
  2513                           
  2514                           	psect	text10
  2515  002718                     __ptext10:
  2516                           	opt callstack 0
  2517  002718                     _abs:
  2518                           	opt callstack 26
  2519  002718  BE14               	btfsc	(abs@a+1)^0,7,c
  2520  00271A  EF99  F013         	goto	u1670
  2521  00271E  5014               	movf	(abs@a+1)^0,w,c
  2522  002720  E106               	bnz	u1671
  2523  002722  0413               	decf	abs@a^0,w,c
  2524  002724  B0D8               	btfsc	status,0,c
  2525  002726  EF97  F013         	goto	u1671
  2526  00272A  EF99  F013         	goto	u1670
  2527  00272E                     u1671:
  2528  00272E  EFA7  F013         	goto	l874
  2529  002732                     u1670:
  2530  002732  C013  F015         	movff	abs@a,??_abs
  2531  002736  C014  F016         	movff	abs@a+1,??_abs+1
  2532  00273A  1E15               	comf	??_abs^0,f,c
  2533  00273C  1E16               	comf	(??_abs+1)^0,f,c
  2534  00273E  4A15               	infsnz	??_abs^0,f,c
  2535  002740  2A16               	incf	(??_abs+1)^0,f,c
  2536  002742  C015  F013         	movff	??_abs,?_abs
  2537  002746  C016  F014         	movff	??_abs+1,?_abs+1
  2538  00274A  EFAB  F013         	goto	l877
  2539  00274E                     l874:
  2540  00274E  C013  F013         	movff	abs@a,?_abs
  2541  002752  C014  F014         	movff	abs@a+1,?_abs+1
  2542  002756                     l877:
  2543  002756  0012               	return		;funcret
  2544  002758                     __end_of_abs:
  2545                           	opt callstack 0
  2546                           
  2547 ;; *************** function ___aomod *****************
  2548 ;; Defined at:
  2549 ;;		line 9 in file "C:\Program Files (x86)\Microchip\xc8\v2.10\pic\sources\c99\common\aomod.c"
  2550 ;; Parameters:    Size  Location     Type
  2551 ;;  dividend        8    0[COMRAM] long long 
  2552 ;;  divisor         8    8[COMRAM] long long 
  2553 ;; Auto vars:     Size  Location     Type
  2554 ;;  sign            1   17[COMRAM] unsigned char 
  2555 ;;  counter         1   16[COMRAM] unsigned char 
  2556 ;; Return value:  Size  Location     Type
  2557 ;;                  8    0[COMRAM] long long 
  2558 ;; Registers used:
  2559 ;;		wreg, status,2, status,0
  2560 ;; Tracked objects:
  2561 ;;		On entry : 0/0
  2562 ;;		On exit  : 0/0
  2563 ;;		Unchanged: 0/0
  2564 ;; Data sizes:     COMRAM   BANK0   BANK1   BANK2   BANK3   BANK4   BANK5   BANK6   BANK7
  2565 ;;      Params:        16       0       0       0       0       0       0       0       0
  2566 ;;      Locals:         2       0       0       0       0       0       0       0       0
  2567 ;;      Temps:          0       0       0       0       0       0       0       0       0
  2568 ;;      Totals:        18       0       0       0       0       0       0       0       0
  2569 ;;Total ram usage:       18 bytes
  2570 ;; Hardware stack levels used:    1
  2571 ;; This function calls:
  2572 ;;		Nothing
  2573 ;; This function is called by:
  2574 ;;		_dtoa
  2575 ;; This function uses a non-reentrant model
  2576 ;;
  2577                           
  2578                           	psect	text11
  2579  002096                     __ptext11:
  2580                           	opt callstack 0
  2581  002096                     ___aomod:
  2582                           	opt callstack 26
  2583  002096  0E00               	movlw	0
  2584  002098  6E12               	movwf	___aomod@sign^0,c
  2585  00209A  BE08               	btfsc	(___aomod@dividend+7)^0,7,c
  2586  00209C  EF54  F010         	goto	u1750
  2587  0020A0  EF52  F010         	goto	u1751
  2588  0020A4                     u1751:
  2589  0020A4  EF66  F010         	goto	l2041
  2590  0020A8                     u1750:
  2591  0020A8  1E08               	comf	(___aomod@dividend+7)^0,f,c
  2592  0020AA  1E07               	comf	(___aomod@dividend+6)^0,f,c
  2593  0020AC  1E06               	comf	(___aomod@dividend+5)^0,f,c
  2594  0020AE  1E05               	comf	(___aomod@dividend+4)^0,f,c
  2595  0020B0  1E04               	comf	(___aomod@dividend+3)^0,f,c
  2596  0020B2  1E03               	comf	(___aomod@dividend+2)^0,f,c
  2597  0020B4  1E02               	comf	(___aomod@dividend+1)^0,f,c
  2598  0020B6  6C01               	negf	___aomod@dividend^0,c
  2599  0020B8  0E00               	movlw	0
  2600  0020BA  2202               	addwfc	(___aomod@dividend+1)^0,f,c
  2601  0020BC  2203               	addwfc	(___aomod@dividend+2)^0,f,c
  2602  0020BE  2204               	addwfc	(___aomod@dividend+3)^0,f,c
  2603  0020C0  2205               	addwfc	(___aomod@dividend+4)^0,f,c
  2604  0020C2  2206               	addwfc	(___aomod@dividend+5)^0,f,c
  2605  0020C4  2207               	addwfc	(___aomod@dividend+6)^0,f,c
  2606  0020C6  2208               	addwfc	(___aomod@dividend+7)^0,f,c
  2607  0020C8  0E01               	movlw	1
  2608  0020CA  6E12               	movwf	___aomod@sign^0,c
  2609  0020CC                     l2041:
  2610  0020CC  BE10               	btfsc	(___aomod@divisor+7)^0,7,c
  2611  0020CE  EF6D  F010         	goto	u1760
  2612  0020D2  EF6B  F010         	goto	u1761
  2613  0020D6                     u1761:
  2614  0020D6  EF7D  F010         	goto	l2045
  2615  0020DA                     u1760:
  2616  0020DA  1E10               	comf	(___aomod@divisor+7)^0,f,c
  2617  0020DC  1E0F               	comf	(___aomod@divisor+6)^0,f,c
  2618  0020DE  1E0E               	comf	(___aomod@divisor+5)^0,f,c
  2619  0020E0  1E0D               	comf	(___aomod@divisor+4)^0,f,c
  2620  0020E2  1E0C               	comf	(___aomod@divisor+3)^0,f,c
  2621  0020E4  1E0B               	comf	(___aomod@divisor+2)^0,f,c
  2622  0020E6  1E0A               	comf	(___aomod@divisor+1)^0,f,c
  2623  0020E8  6C09               	negf	___aomod@divisor^0,c
  2624  0020EA  0E00               	movlw	0
  2625  0020EC  220A               	addwfc	(___aomod@divisor+1)^0,f,c
  2626  0020EE  220B               	addwfc	(___aomod@divisor+2)^0,f,c
  2627  0020F0  220C               	addwfc	(___aomod@divisor+3)^0,f,c
  2628  0020F2  220D               	addwfc	(___aomod@divisor+4)^0,f,c
  2629  0020F4  220E               	addwfc	(___aomod@divisor+5)^0,f,c
  2630  0020F6  220F               	addwfc	(___aomod@divisor+6)^0,f,c
  2631  0020F8  2210               	addwfc	(___aomod@divisor+7)^0,f,c
  2632  0020FA                     l2045:
  2633  0020FA  5009               	movf	___aomod@divisor^0,w,c
  2634  0020FC  100A               	iorwf	(___aomod@divisor+1)^0,w,c
  2635  0020FE  100B               	iorwf	(___aomod@divisor+2)^0,w,c
  2636  002100  100C               	iorwf	(___aomod@divisor+3)^0,w,c
  2637  002102  100D               	iorwf	(___aomod@divisor+4)^0,w,c
  2638  002104  100E               	iorwf	(___aomod@divisor+5)^0,w,c
  2639  002106  100F               	iorwf	(___aomod@divisor+6)^0,w,c
  2640  002108  1010               	iorwf	(___aomod@divisor+7)^0,w,c
  2641  00210A  B4D8               	btfsc	status,2,c
  2642  00210C  EF8A  F010         	goto	u1771
  2643  002110  EF8C  F010         	goto	u1770
  2644  002114                     u1771:
  2645  002114  EFD4  F010         	goto	l2061
  2646  002118                     u1770:
  2647  002118  0E01               	movlw	1
  2648  00211A  6E11               	movwf	___aomod@counter^0,c
  2649  00211C  EF9A  F010         	goto	l2051
  2650  002120                     l2049:
  2651  002120  90D8               	bcf	status,0,c
  2652  002122  3609               	rlcf	___aomod@divisor^0,f,c
  2653  002124  360A               	rlcf	(___aomod@divisor+1)^0,f,c
  2654  002126  360B               	rlcf	(___aomod@divisor+2)^0,f,c
  2655  002128  360C               	rlcf	(___aomod@divisor+3)^0,f,c
  2656  00212A  360D               	rlcf	(___aomod@divisor+4)^0,f,c
  2657  00212C  360E               	rlcf	(___aomod@divisor+5)^0,f,c
  2658  00212E  360F               	rlcf	(___aomod@divisor+6)^0,f,c
  2659  002130  3610               	rlcf	(___aomod@divisor+7)^0,f,c
  2660  002132  2A11               	incf	___aomod@counter^0,f,c
  2661  002134                     l2051:
  2662  002134  AE10               	btfss	(___aomod@divisor+7)^0,7,c
  2663  002136  EF9F  F010         	goto	u1781
  2664  00213A  EFA1  F010         	goto	u1780
  2665  00213E                     u1781:
  2666  00213E  EF90  F010         	goto	l2049
  2667  002142                     u1780:
  2668  002142                     l2053:
  2669  002142  5009               	movf	___aomod@divisor^0,w,c
  2670  002144  5C01               	subwf	___aomod@dividend^0,w,c
  2671  002146  500A               	movf	(___aomod@divisor+1)^0,w,c
  2672  002148  5802               	subwfb	(___aomod@dividend+1)^0,w,c
  2673  00214A  500B               	movf	(___aomod@divisor+2)^0,w,c
  2674  00214C  5803               	subwfb	(___aomod@dividend+2)^0,w,c
  2675  00214E  500C               	movf	(___aomod@divisor+3)^0,w,c
  2676  002150  5804               	subwfb	(___aomod@dividend+3)^0,w,c
  2677  002152  500D               	movf	(___aomod@divisor+4)^0,w,c
  2678  002154  5805               	subwfb	(___aomod@dividend+4)^0,w,c
  2679  002156  500E               	movf	(___aomod@divisor+5)^0,w,c
  2680  002158  5806               	subwfb	(___aomod@dividend+5)^0,w,c
  2681  00215A  500F               	movf	(___aomod@divisor+6)^0,w,c
  2682  00215C  5807               	subwfb	(___aomod@dividend+6)^0,w,c
  2683  00215E  5010               	movf	(___aomod@divisor+7)^0,w,c
  2684  002160  5808               	subwfb	(___aomod@dividend+7)^0,w,c
  2685  002162  A0D8               	btfss	status,0,c
  2686  002164  EFB6  F010         	goto	u1791
  2687  002168  EFB8  F010         	goto	u1790
  2688  00216C                     u1791:
  2689  00216C  EFC8  F010         	goto	l2057
  2690  002170                     u1790:
  2691  002170  5009               	movf	___aomod@divisor^0,w,c
  2692  002172  5E01               	subwf	___aomod@dividend^0,f,c
  2693  002174  500A               	movf	(___aomod@divisor+1)^0,w,c
  2694  002176  5A02               	subwfb	(___aomod@dividend+1)^0,f,c
  2695  002178  500B               	movf	(___aomod@divisor+2)^0,w,c
  2696  00217A  5A03               	subwfb	(___aomod@dividend+2)^0,f,c
  2697  00217C  500C               	movf	(___aomod@divisor+3)^0,w,c
  2698  00217E  5A04               	subwfb	(___aomod@dividend+3)^0,f,c
  2699  002180  500D               	movf	(___aomod@divisor+4)^0,w,c
  2700  002182  5A05               	subwfb	(___aomod@dividend+4)^0,f,c
  2701  002184  500E               	movf	(___aomod@divisor+5)^0,w,c
  2702  002186  5A06               	subwfb	(___aomod@dividend+5)^0,f,c
  2703  002188  500F               	movf	(___aomod@divisor+6)^0,w,c
  2704  00218A  5A07               	subwfb	(___aomod@dividend+6)^0,f,c
  2705  00218C  5010               	movf	(___aomod@divisor+7)^0,w,c
  2706  00218E  5A08               	subwfb	(___aomod@dividend+7)^0,f,c
  2707  002190                     l2057:
  2708  002190  90D8               	bcf	status,0,c
  2709  002192  3210               	rrcf	(___aomod@divisor+7)^0,f,c
  2710  002194  320F               	rrcf	(___aomod@divisor+6)^0,f,c
  2711  002196  320E               	rrcf	(___aomod@divisor+5)^0,f,c
  2712  002198  320D               	rrcf	(___aomod@divisor+4)^0,f,c
  2713  00219A  320C               	rrcf	(___aomod@divisor+3)^0,f,c
  2714  00219C  320B               	rrcf	(___aomod@divisor+2)^0,f,c
  2715  00219E  320A               	rrcf	(___aomod@divisor+1)^0,f,c
  2716  0021A0  3209               	rrcf	___aomod@divisor^0,f,c
  2717  0021A2  2E11               	decfsz	___aomod@counter^0,f,c
  2718  0021A4  EFA1  F010         	goto	l2053
  2719  0021A8                     l2061:
  2720  0021A8  5012               	movf	___aomod@sign^0,w,c
  2721  0021AA  B4D8               	btfsc	status,2,c
  2722  0021AC  EFDA  F010         	goto	u1801
  2723  0021B0  EFDC  F010         	goto	u1800
  2724  0021B4                     u1801:
  2725  0021B4  EFEC  F010         	goto	l2065
  2726  0021B8                     u1800:
  2727  0021B8  1E08               	comf	(___aomod@dividend+7)^0,f,c
  2728  0021BA  1E07               	comf	(___aomod@dividend+6)^0,f,c
  2729  0021BC  1E06               	comf	(___aomod@dividend+5)^0,f,c
  2730  0021BE  1E05               	comf	(___aomod@dividend+4)^0,f,c
  2731  0021C0  1E04               	comf	(___aomod@dividend+3)^0,f,c
  2732  0021C2  1E03               	comf	(___aomod@dividend+2)^0,f,c
  2733  0021C4  1E02               	comf	(___aomod@dividend+1)^0,f,c
  2734  0021C6  6C01               	negf	___aomod@dividend^0,c
  2735  0021C8  0E00               	movlw	0
  2736  0021CA  2202               	addwfc	(___aomod@dividend+1)^0,f,c
  2737  0021CC  2203               	addwfc	(___aomod@dividend+2)^0,f,c
  2738  0021CE  2204               	addwfc	(___aomod@dividend+3)^0,f,c
  2739  0021D0  2205               	addwfc	(___aomod@dividend+4)^0,f,c
  2740  0021D2  2206               	addwfc	(___aomod@dividend+5)^0,f,c
  2741  0021D4  2207               	addwfc	(___aomod@dividend+6)^0,f,c
  2742  0021D6  2208               	addwfc	(___aomod@dividend+7)^0,f,c
  2743  0021D8                     l2065:
  2744  0021D8  C001  F001         	movff	___aomod@dividend,?___aomod
  2745  0021DC  C002  F002         	movff	___aomod@dividend+1,?___aomod+1
  2746  0021E0  C003  F003         	movff	___aomod@dividend+2,?___aomod+2
  2747  0021E4  C004  F004         	movff	___aomod@dividend+3,?___aomod+3
  2748  0021E8  C005  F005         	movff	___aomod@dividend+4,?___aomod+4
  2749  0021EC  C006  F006         	movff	___aomod@dividend+5,?___aomod+5
  2750  0021F0  C007  F007         	movff	___aomod@dividend+6,?___aomod+6
  2751  0021F4  C008  F008         	movff	___aomod@dividend+7,?___aomod+7
  2752  0021F8  0012               	return		;funcret
  2753  0021FA                     __end_of___aomod:
  2754                           	opt callstack 0
  2755                           
  2756 ;; *************** function ___aodiv *****************
  2757 ;; Defined at:
  2758 ;;		line 9 in file "C:\Program Files (x86)\Microchip\xc8\v2.10\pic\sources\c99\common\aodiv.c"
  2759 ;; Parameters:    Size  Location     Type
  2760 ;;  dividend        8    0[COMRAM] long long 
  2761 ;;  divisor         8    8[COMRAM] long long 
  2762 ;; Auto vars:     Size  Location     Type
  2763 ;;  quotient        8   18[COMRAM] long long 
  2764 ;;  sign            1   17[COMRAM] unsigned char 
  2765 ;;  counter         1   16[COMRAM] unsigned char 
  2766 ;; Return value:  Size  Location     Type
  2767 ;;                  8    0[COMRAM] long long 
  2768 ;; Registers used:
  2769 ;;		wreg, fsr2l, fsr2h, status,2, status,0
  2770 ;; Tracked objects:
  2771 ;;		On entry : 0/0
  2772 ;;		On exit  : 0/0
  2773 ;;		Unchanged: 0/0
  2774 ;; Data sizes:     COMRAM   BANK0   BANK1   BANK2   BANK3   BANK4   BANK5   BANK6   BANK7
  2775 ;;      Params:        16       0       0       0       0       0       0       0       0
  2776 ;;      Locals:        10       0       0       0       0       0       0       0       0
  2777 ;;      Temps:          0       0       0       0       0       0       0       0       0
  2778 ;;      Totals:        26       0       0       0       0       0       0       0       0
  2779 ;;Total ram usage:       26 bytes
  2780 ;; Hardware stack levels used:    1
  2781 ;; This function calls:
  2782 ;;		Nothing
  2783 ;; This function is called by:
  2784 ;;		_dtoa
  2785 ;; This function uses a non-reentrant model
  2786 ;;
  2787                           
  2788                           	psect	text12
  2789  001F0E                     __ptext12:
  2790                           	opt callstack 0
  2791  001F0E                     ___aodiv:
  2792                           	opt callstack 26
  2793  001F0E  0E00               	movlw	0
  2794  001F10  6E12               	movwf	___aodiv@sign^0,c
  2795  001F12  BE10               	btfsc	(___aodiv@divisor+7)^0,7,c
  2796  001F14  EF90  F00F         	goto	u1680
  2797  001F18  EF8E  F00F         	goto	u1681
  2798  001F1C                     u1681:
  2799  001F1C  EFA2  F00F         	goto	l1997
  2800  001F20                     u1680:
  2801  001F20  1E10               	comf	(___aodiv@divisor+7)^0,f,c
  2802  001F22  1E0F               	comf	(___aodiv@divisor+6)^0,f,c
  2803  001F24  1E0E               	comf	(___aodiv@divisor+5)^0,f,c
  2804  001F26  1E0D               	comf	(___aodiv@divisor+4)^0,f,c
  2805  001F28  1E0C               	comf	(___aodiv@divisor+3)^0,f,c
  2806  001F2A  1E0B               	comf	(___aodiv@divisor+2)^0,f,c
  2807  001F2C  1E0A               	comf	(___aodiv@divisor+1)^0,f,c
  2808  001F2E  6C09               	negf	___aodiv@divisor^0,c
  2809  001F30  0E00               	movlw	0
  2810  001F32  220A               	addwfc	(___aodiv@divisor+1)^0,f,c
  2811  001F34  220B               	addwfc	(___aodiv@divisor+2)^0,f,c
  2812  001F36  220C               	addwfc	(___aodiv@divisor+3)^0,f,c
  2813  001F38  220D               	addwfc	(___aodiv@divisor+4)^0,f,c
  2814  001F3A  220E               	addwfc	(___aodiv@divisor+5)^0,f,c
  2815  001F3C  220F               	addwfc	(___aodiv@divisor+6)^0,f,c
  2816  001F3E  2210               	addwfc	(___aodiv@divisor+7)^0,f,c
  2817  001F40  0E01               	movlw	1
  2818  001F42  6E12               	movwf	___aodiv@sign^0,c
  2819  001F44                     l1997:
  2820  001F44  BE08               	btfsc	(___aodiv@dividend+7)^0,7,c
  2821  001F46  EFA9  F00F         	goto	u1690
  2822  001F4A  EFA7  F00F         	goto	u1691
  2823  001F4E                     u1691:
  2824  001F4E  EFBB  F00F         	goto	l2003
  2825  001F52                     u1690:
  2826  001F52  1E08               	comf	(___aodiv@dividend+7)^0,f,c
  2827  001F54  1E07               	comf	(___aodiv@dividend+6)^0,f,c
  2828  001F56  1E06               	comf	(___aodiv@dividend+5)^0,f,c
  2829  001F58  1E05               	comf	(___aodiv@dividend+4)^0,f,c
  2830  001F5A  1E04               	comf	(___aodiv@dividend+3)^0,f,c
  2831  001F5C  1E03               	comf	(___aodiv@dividend+2)^0,f,c
  2832  001F5E  1E02               	comf	(___aodiv@dividend+1)^0,f,c
  2833  001F60  6C01               	negf	___aodiv@dividend^0,c
  2834  001F62  0E00               	movlw	0
  2835  001F64  2202               	addwfc	(___aodiv@dividend+1)^0,f,c
  2836  001F66  2203               	addwfc	(___aodiv@dividend+2)^0,f,c
  2837  001F68  2204               	addwfc	(___aodiv@dividend+3)^0,f,c
  2838  001F6A  2205               	addwfc	(___aodiv@dividend+4)^0,f,c
  2839  001F6C  2206               	addwfc	(___aodiv@dividend+5)^0,f,c
  2840  001F6E  2207               	addwfc	(___aodiv@dividend+6)^0,f,c
  2841  001F70  2208               	addwfc	(___aodiv@dividend+7)^0,f,c
  2842  001F72  0E01               	movlw	1
  2843  001F74  1A12               	xorwf	___aodiv@sign^0,f,c
  2844  001F76                     l2003:
  2845  001F76  EE20  F013         	lfsr	2,___aodiv@quotient
  2846  001F7A  0E07               	movlw	7
  2847  001F7C                     u1701:
  2848  001F7C  6ADE               	clrf	postinc2,c
  2849  001F7E  06E8               	decf	wreg,f,c
  2850  001F80  E2FD               	bc	u1701
  2851  001F82  5009               	movf	___aodiv@divisor^0,w,c
  2852  001F84  100A               	iorwf	(___aodiv@divisor+1)^0,w,c
  2853  001F86  100B               	iorwf	(___aodiv@divisor+2)^0,w,c
  2854  001F88  100C               	iorwf	(___aodiv@divisor+3)^0,w,c
  2855  001F8A  100D               	iorwf	(___aodiv@divisor+4)^0,w,c
  2856  001F8C  100E               	iorwf	(___aodiv@divisor+5)^0,w,c
  2857  001F8E  100F               	iorwf	(___aodiv@divisor+6)^0,w,c
  2858  001F90  1010               	iorwf	(___aodiv@divisor+7)^0,w,c
  2859  001F92  B4D8               	btfsc	status,2,c
  2860  001F94  EFCE  F00F         	goto	u1711
  2861  001F98  EFD0  F00F         	goto	u1710
  2862  001F9C                     u1711:
  2863  001F9C  EF22  F010         	goto	l2025
  2864  001FA0                     u1710:
  2865  001FA0  0E01               	movlw	1
  2866  001FA2  6E11               	movwf	___aodiv@counter^0,c
  2867  001FA4  EFDE  F00F         	goto	l2011
  2868  001FA8                     l2009:
  2869  001FA8  90D8               	bcf	status,0,c
  2870  001FAA  3609               	rlcf	___aodiv@divisor^0,f,c
  2871  001FAC  360A               	rlcf	(___aodiv@divisor+1)^0,f,c
  2872  001FAE  360B               	rlcf	(___aodiv@divisor+2)^0,f,c
  2873  001FB0  360C               	rlcf	(___aodiv@divisor+3)^0,f,c
  2874  001FB2  360D               	rlcf	(___aodiv@divisor+4)^0,f,c
  2875  001FB4  360E               	rlcf	(___aodiv@divisor+5)^0,f,c
  2876  001FB6  360F               	rlcf	(___aodiv@divisor+6)^0,f,c
  2877  001FB8  3610               	rlcf	(___aodiv@divisor+7)^0,f,c
  2878  001FBA  2A11               	incf	___aodiv@counter^0,f,c
  2879  001FBC                     l2011:
  2880  001FBC  AE10               	btfss	(___aodiv@divisor+7)^0,7,c
  2881  001FBE  EFE3  F00F         	goto	u1721
  2882  001FC2  EFE5  F00F         	goto	u1720
  2883  001FC6                     u1721:
  2884  001FC6  EFD4  F00F         	goto	l2009
  2885  001FCA                     u1720:
  2886  001FCA                     l2013:
  2887  001FCA  90D8               	bcf	status,0,c
  2888  001FCC  3613               	rlcf	___aodiv@quotient^0,f,c
  2889  001FCE  3614               	rlcf	(___aodiv@quotient+1)^0,f,c
  2890  001FD0  3615               	rlcf	(___aodiv@quotient+2)^0,f,c
  2891  001FD2  3616               	rlcf	(___aodiv@quotient+3)^0,f,c
  2892  001FD4  3617               	rlcf	(___aodiv@quotient+4)^0,f,c
  2893  001FD6  3618               	rlcf	(___aodiv@quotient+5)^0,f,c
  2894  001FD8  3619               	rlcf	(___aodiv@quotient+6)^0,f,c
  2895  001FDA  361A               	rlcf	(___aodiv@quotient+7)^0,f,c
  2896  001FDC  5009               	movf	___aodiv@divisor^0,w,c
  2897  001FDE  5C01               	subwf	___aodiv@dividend^0,w,c
  2898  001FE0  500A               	movf	(___aodiv@divisor+1)^0,w,c
  2899  001FE2  5802               	subwfb	(___aodiv@dividend+1)^0,w,c
  2900  001FE4  500B               	movf	(___aodiv@divisor+2)^0,w,c
  2901  001FE6  5803               	subwfb	(___aodiv@dividend+2)^0,w,c
  2902  001FE8  500C               	movf	(___aodiv@divisor+3)^0,w,c
  2903  001FEA  5804               	subwfb	(___aodiv@dividend+3)^0,w,c
  2904  001FEC  500D               	movf	(___aodiv@divisor+4)^0,w,c
  2905  001FEE  5805               	subwfb	(___aodiv@dividend+4)^0,w,c
  2906  001FF0  500E               	movf	(___aodiv@divisor+5)^0,w,c
  2907  001FF2  5806               	subwfb	(___aodiv@dividend+5)^0,w,c
  2908  001FF4  500F               	movf	(___aodiv@divisor+6)^0,w,c
  2909  001FF6  5807               	subwfb	(___aodiv@dividend+6)^0,w,c
  2910  001FF8  5010               	movf	(___aodiv@divisor+7)^0,w,c
  2911  001FFA  5808               	subwfb	(___aodiv@dividend+7)^0,w,c
  2912  001FFC  A0D8               	btfss	status,0,c
  2913  001FFE  EF03  F010         	goto	u1731
  2914  002002  EF05  F010         	goto	u1730
  2915  002006                     u1731:
  2916  002006  EF16  F010         	goto	l2021
  2917  00200A                     u1730:
  2918  00200A  5009               	movf	___aodiv@divisor^0,w,c
  2919  00200C  5E01               	subwf	___aodiv@dividend^0,f,c
  2920  00200E  500A               	movf	(___aodiv@divisor+1)^0,w,c
  2921  002010  5A02               	subwfb	(___aodiv@dividend+1)^0,f,c
  2922  002012  500B               	movf	(___aodiv@divisor+2)^0,w,c
  2923  002014  5A03               	subwfb	(___aodiv@dividend+2)^0,f,c
  2924  002016  500C               	movf	(___aodiv@divisor+3)^0,w,c
  2925  002018  5A04               	subwfb	(___aodiv@dividend+3)^0,f,c
  2926  00201A  500D               	movf	(___aodiv@divisor+4)^0,w,c
  2927  00201C  5A05               	subwfb	(___aodiv@dividend+4)^0,f,c
  2928  00201E  500E               	movf	(___aodiv@divisor+5)^0,w,c
  2929  002020  5A06               	subwfb	(___aodiv@dividend+5)^0,f,c
  2930  002022  500F               	movf	(___aodiv@divisor+6)^0,w,c
  2931  002024  5A07               	subwfb	(___aodiv@dividend+6)^0,f,c
  2932  002026  5010               	movf	(___aodiv@divisor+7)^0,w,c
  2933  002028  5A08               	subwfb	(___aodiv@dividend+7)^0,f,c
  2934  00202A  8013               	bsf	___aodiv@quotient^0,0,c
  2935  00202C                     l2021:
  2936  00202C  90D8               	bcf	status,0,c
  2937  00202E  3210               	rrcf	(___aodiv@divisor+7)^0,f,c
  2938  002030  320F               	rrcf	(___aodiv@divisor+6)^0,f,c
  2939  002032  320E               	rrcf	(___aodiv@divisor+5)^0,f,c
  2940  002034  320D               	rrcf	(___aodiv@divisor+4)^0,f,c
  2941  002036  320C               	rrcf	(___aodiv@divisor+3)^0,f,c
  2942  002038  320B               	rrcf	(___aodiv@divisor+2)^0,f,c
  2943  00203A  320A               	rrcf	(___aodiv@divisor+1)^0,f,c
  2944  00203C  3209               	rrcf	___aodiv@divisor^0,f,c
  2945  00203E  2E11               	decfsz	___aodiv@counter^0,f,c
  2946  002040  EFE5  F00F         	goto	l2013
  2947  002044                     l2025:
  2948  002044  5012               	movf	___aodiv@sign^0,w,c
  2949  002046  B4D8               	btfsc	status,2,c
  2950  002048  EF28  F010         	goto	u1741
  2951  00204C  EF2A  F010         	goto	u1740
  2952  002050                     u1741:
  2953  002050  EF3A  F010         	goto	l2029
  2954  002054                     u1740:
  2955  002054  1E1A               	comf	(___aodiv@quotient+7)^0,f,c
  2956  002056  1E19               	comf	(___aodiv@quotient+6)^0,f,c
  2957  002058  1E18               	comf	(___aodiv@quotient+5)^0,f,c
  2958  00205A  1E17               	comf	(___aodiv@quotient+4)^0,f,c
  2959  00205C  1E16               	comf	(___aodiv@quotient+3)^0,f,c
  2960  00205E  1E15               	comf	(___aodiv@quotient+2)^0,f,c
  2961  002060  1E14               	comf	(___aodiv@quotient+1)^0,f,c
  2962  002062  6C13               	negf	___aodiv@quotient^0,c
  2963  002064  0E00               	movlw	0
  2964  002066  2214               	addwfc	(___aodiv@quotient+1)^0,f,c
  2965  002068  2215               	addwfc	(___aodiv@quotient+2)^0,f,c
  2966  00206A  2216               	addwfc	(___aodiv@quotient+3)^0,f,c
  2967  00206C  2217               	addwfc	(___aodiv@quotient+4)^0,f,c
  2968  00206E  2218               	addwfc	(___aodiv@quotient+5)^0,f,c
  2969  002070  2219               	addwfc	(___aodiv@quotient+6)^0,f,c
  2970  002072  221A               	addwfc	(___aodiv@quotient+7)^0,f,c
  2971  002074                     l2029:
  2972  002074  C013  F001         	movff	___aodiv@quotient,?___aodiv
  2973  002078  C014  F002         	movff	___aodiv@quotient+1,?___aodiv+1
  2974  00207C  C015  F003         	movff	___aodiv@quotient+2,?___aodiv+2
  2975  002080  C016  F004         	movff	___aodiv@quotient+3,?___aodiv+3
  2976  002084  C017  F005         	movff	___aodiv@quotient+4,?___aodiv+4
  2977  002088  C018  F006         	movff	___aodiv@quotient+5,?___aodiv+5
  2978  00208C  C019  F007         	movff	___aodiv@quotient+6,?___aodiv+6
  2979  002090  C01A  F008         	movff	___aodiv@quotient+7,?___aodiv+7
  2980  002094  0012               	return		;funcret
  2981  002096                     __end_of___aodiv:
  2982                           	opt callstack 0
  2983                           
  2984 ;; *************** function ___xxtofl *****************
  2985 ;; Defined at:
  2986 ;;		line 10 in file "C:\Program Files (x86)\Microchip\xc8\v2.10\pic\sources\c99\common\xxtofl.c"
  2987 ;; Parameters:    Size  Location     Type
  2988 ;;  sign            1    wreg     unsigned char 
  2989 ;;  val             4    0[COMRAM] long 
  2990 ;; Auto vars:     Size  Location     Type
  2991 ;;  sign            1    8[COMRAM] unsigned char 
  2992 ;;  arg             4   10[COMRAM] unsigned long 
  2993 ;;  exp             1    9[COMRAM] unsigned char 
  2994 ;; Return value:  Size  Location     Type
  2995 ;;                  4    0[COMRAM] unsigned char 
  2996 ;; Registers used:
  2997 ;;		wreg, status,2, status,0
  2998 ;; Tracked objects:
  2999 ;;		On entry : 0/0
  3000 ;;		On exit  : 0/0
  3001 ;;		Unchanged: 0/0
  3002 ;; Data sizes:     COMRAM   BANK0   BANK1   BANK2   BANK3   BANK4   BANK5   BANK6   BANK7
  3003 ;;      Params:         4       0       0       0       0       0       0       0       0
  3004 ;;      Locals:         6       0       0       0       0       0       0       0       0
  3005 ;;      Temps:          4       0       0       0       0       0       0       0       0
  3006 ;;      Totals:        14       0       0       0       0       0       0       0       0
  3007 ;;Total ram usage:       14 bytes
  3008 ;; Hardware stack levels used:    1
  3009 ;; This function calls:
  3010 ;;		Nothing
  3011 ;; This function is called by:
  3012 ;;		_main
  3013 ;; This function uses a non-reentrant model
  3014 ;;
  3015                           
  3016                           	psect	text13
  3017  001D5A                     __ptext13:
  3018                           	opt callstack 0
  3019  001D5A                     ___xxtofl:
  3020                           	opt callstack 30
  3021                           
  3022                           ;incstack = 0
  3023                           ;___xxtofl@sign stored from wreg
  3024  001D5A  6E09               	movwf	___xxtofl@sign^0,c
  3025  001D5C  5009               	movf	___xxtofl@sign^0,w,c
  3026  001D5E  B4D8               	btfsc	status,2,c
  3027  001D60  EFB4  F00E         	goto	u3001
  3028  001D64  EFB6  F00E         	goto	u3000
  3029  001D68                     u3001:
  3030  001D68  EFD8  F00E         	goto	l854
  3031  001D6C                     u3000:
  3032  001D6C  BE04               	btfsc	(___xxtofl@val+3)^0,7,c
  3033  001D6E  EFBD  F00E         	goto	u3010
  3034  001D72  EFBB  F00E         	goto	u3011
  3035  001D76                     u3011:
  3036  001D76  EFD8  F00E         	goto	l854
  3037  001D7A                     u3010:
  3038  001D7A  C001  F005         	movff	___xxtofl@val,??___xxtofl
  3039  001D7E  C002  F006         	movff	___xxtofl@val+1,??___xxtofl+1
  3040  001D82  C003  F007         	movff	___xxtofl@val+2,??___xxtofl+2
  3041  001D86  C004  F008         	movff	___xxtofl@val+3,??___xxtofl+3
  3042  001D8A  1E05               	comf	??___xxtofl^0,f,c
  3043  001D8C  1E06               	comf	(??___xxtofl+1)^0,f,c
  3044  001D8E  1E07               	comf	(??___xxtofl+2)^0,f,c
  3045  001D90  1E08               	comf	(??___xxtofl+3)^0,f,c
  3046  001D92  2A05               	incf	??___xxtofl^0,f,c
  3047  001D94  0E00               	movlw	0
  3048  001D96  2206               	addwfc	(??___xxtofl+1)^0,f,c
  3049  001D98  2207               	addwfc	(??___xxtofl+2)^0,f,c
  3050  001D9A  2208               	addwfc	(??___xxtofl+3)^0,f,c
  3051  001D9C  C005  F00B         	movff	??___xxtofl,___xxtofl@arg
  3052  001DA0  C006  F00C         	movff	??___xxtofl+1,___xxtofl@arg+1
  3053  001DA4  C007  F00D         	movff	??___xxtofl+2,___xxtofl@arg+2
  3054  001DA8  C008  F00E         	movff	??___xxtofl+3,___xxtofl@arg+3
  3055  001DAC  EFE0  F00E         	goto	l2809
  3056  001DB0                     l854:
  3057  001DB0  C001  F00B         	movff	___xxtofl@val,___xxtofl@arg
  3058  001DB4  C002  F00C         	movff	___xxtofl@val+1,___xxtofl@arg+1
  3059  001DB8  C003  F00D         	movff	___xxtofl@val+2,___xxtofl@arg+2
  3060  001DBC  C004  F00E         	movff	___xxtofl@val+3,___xxtofl@arg+3
  3061  001DC0                     l2809:
  3062  001DC0  5001               	movf	___xxtofl@val^0,w,c
  3063  001DC2  1002               	iorwf	(___xxtofl@val+1)^0,w,c
  3064  001DC4  1003               	iorwf	(___xxtofl@val+2)^0,w,c
  3065  001DC6  1004               	iorwf	(___xxtofl@val+3)^0,w,c
  3066  001DC8  A4D8               	btfss	status,2,c
  3067  001DCA  EFE9  F00E         	goto	u3021
  3068  001DCE  EFEB  F00E         	goto	u3020
  3069  001DD2                     u3021:
  3070  001DD2  EFF5  F00E         	goto	l2815
  3071  001DD6                     u3020:
  3072  001DD6  0E00               	movlw	0
  3073  001DD8  6E01               	movwf	?___xxtofl^0,c
  3074  001DDA  0E00               	movlw	0
  3075  001DDC  6E02               	movwf	(?___xxtofl+1)^0,c
  3076  001DDE  0E00               	movlw	0
  3077  001DE0  6E03               	movwf	(?___xxtofl+2)^0,c
  3078  001DE2  0E00               	movlw	0
  3079  001DE4  6E04               	movwf	(?___xxtofl+3)^0,c
  3080  001DE6  EF86  F00F         	goto	l857
  3081  001DEA                     l2815:
  3082  001DEA  0E96               	movlw	150
  3083  001DEC  6E0A               	movwf	___xxtofl@exp^0,c
  3084  001DEE  EFFF  F00E         	goto	l2819
  3085  001DF2                     l2817:
  3086  001DF2  2A0A               	incf	___xxtofl@exp^0,f,c
  3087  001DF4  90D8               	bcf	status,0,c
  3088  001DF6  320E               	rrcf	(___xxtofl@arg+3)^0,f,c
  3089  001DF8  320D               	rrcf	(___xxtofl@arg+2)^0,f,c
  3090  001DFA  320C               	rrcf	(___xxtofl@arg+1)^0,f,c
  3091  001DFC  320B               	rrcf	___xxtofl@arg^0,f,c
  3092  001DFE                     l2819:
  3093  001DFE  0E00               	movlw	0
  3094  001E00  140B               	andwf	___xxtofl@arg^0,w,c
  3095  001E02  6E05               	movwf	??___xxtofl^0,c
  3096  001E04  0E00               	movlw	0
  3097  001E06  140C               	andwf	(___xxtofl@arg+1)^0,w,c
  3098  001E08  6E06               	movwf	(??___xxtofl+1)^0,c
  3099  001E0A  0E00               	movlw	0
  3100  001E0C  140D               	andwf	(___xxtofl@arg+2)^0,w,c
  3101  001E0E  6E07               	movwf	(??___xxtofl+2)^0,c
  3102  001E10  0EFE               	movlw	254
  3103  001E12  140E               	andwf	(___xxtofl@arg+3)^0,w,c
  3104  001E14  6E08               	movwf	(??___xxtofl+3)^0,c
  3105  001E16  5005               	movf	??___xxtofl^0,w,c
  3106  001E18  1006               	iorwf	(??___xxtofl+1)^0,w,c
  3107  001E1A  1007               	iorwf	(??___xxtofl+2)^0,w,c
  3108  001E1C  1008               	iorwf	(??___xxtofl+3)^0,w,c
  3109  001E1E  A4D8               	btfss	status,2,c
  3110  001E20  EF14  F00F         	goto	u3031
  3111  001E24  EF16  F00F         	goto	u3030
  3112  001E28                     u3031:
  3113  001E28  EFF9  F00E         	goto	l2817
  3114  001E2C                     u3030:
  3115  001E2C  EF24  F00F         	goto	l861
  3116  001E30                     l2821:
  3117  001E30  2A0A               	incf	___xxtofl@exp^0,f,c
  3118  001E32  0E01               	movlw	1
  3119  001E34  260B               	addwf	___xxtofl@arg^0,f,c
  3120  001E36  0E00               	movlw	0
  3121  001E38  220C               	addwfc	(___xxtofl@arg+1)^0,f,c
  3122  001E3A  220D               	addwfc	(___xxtofl@arg+2)^0,f,c
  3123  001E3C  220E               	addwfc	(___xxtofl@arg+3)^0,f,c
  3124  001E3E  90D8               	bcf	status,0,c
  3125  001E40  320E               	rrcf	(___xxtofl@arg+3)^0,f,c
  3126  001E42  320D               	rrcf	(___xxtofl@arg+2)^0,f,c
  3127  001E44  320C               	rrcf	(___xxtofl@arg+1)^0,f,c
  3128  001E46  320B               	rrcf	___xxtofl@arg^0,f,c
  3129  001E48                     l861:
  3130  001E48  0E00               	movlw	0
  3131  001E4A  140B               	andwf	___xxtofl@arg^0,w,c
  3132  001E4C  6E05               	movwf	??___xxtofl^0,c
  3133  001E4E  0E00               	movlw	0
  3134  001E50  140C               	andwf	(___xxtofl@arg+1)^0,w,c
  3135  001E52  6E06               	movwf	(??___xxtofl+1)^0,c
  3136  001E54  0E00               	movlw	0
  3137  001E56  140D               	andwf	(___xxtofl@arg+2)^0,w,c
  3138  001E58  6E07               	movwf	(??___xxtofl+2)^0,c
  3139  001E5A  0EFF               	movlw	255
  3140  001E5C  140E               	andwf	(___xxtofl@arg+3)^0,w,c
  3141  001E5E  6E08               	movwf	(??___xxtofl+3)^0,c
  3142  001E60  5005               	movf	??___xxtofl^0,w,c
  3143  001E62  1006               	iorwf	(??___xxtofl+1)^0,w,c
  3144  001E64  1007               	iorwf	(??___xxtofl+2)^0,w,c
  3145  001E66  1008               	iorwf	(??___xxtofl+3)^0,w,c
  3146  001E68  A4D8               	btfss	status,2,c
  3147  001E6A  EF39  F00F         	goto	u3041
  3148  001E6E  EF3B  F00F         	goto	u3040
  3149  001E72                     u3041:
  3150  001E72  EF18  F00F         	goto	l2821
  3151  001E76                     u3040:
  3152  001E76  EF43  F00F         	goto	l2829
  3153  001E7A                     l2827:
  3154  001E7A  060A               	decf	___xxtofl@exp^0,f,c
  3155  001E7C  90D8               	bcf	status,0,c
  3156  001E7E  360B               	rlcf	___xxtofl@arg^0,f,c
  3157  001E80  360C               	rlcf	(___xxtofl@arg+1)^0,f,c
  3158  001E82  360D               	rlcf	(___xxtofl@arg+2)^0,f,c
  3159  001E84  360E               	rlcf	(___xxtofl@arg+3)^0,f,c
  3160  001E86                     l2829:
  3161  001E86  BE0D               	btfsc	(___xxtofl@arg+2)^0,7,c
  3162  001E88  EF48  F00F         	goto	u3051
  3163  001E8C  EF4A  F00F         	goto	u3050
  3164  001E90                     u3051:
  3165  001E90  EF52  F00F         	goto	l868
  3166  001E94                     u3050:
  3167  001E94  0E02               	movlw	2
  3168  001E96  600A               	cpfslt	___xxtofl@exp^0,c
  3169  001E98  EF50  F00F         	goto	u3061
  3170  001E9C  EF52  F00F         	goto	u3060
  3171  001EA0                     u3061:
  3172  001EA0  EF3D  F00F         	goto	l2827
  3173  001EA4                     u3060:
  3174  001EA4                     l868:
  3175  001EA4  B00A               	btfsc	___xxtofl@exp^0,0,c
  3176  001EA6  EF57  F00F         	goto	u3071
  3177  001EAA  EF59  F00F         	goto	u3070
  3178  001EAE                     u3071:
  3179  001EAE  EF5A  F00F         	goto	l2835
  3180  001EB2                     u3070:
  3181  001EB2  9E0D               	bcf	(___xxtofl@arg+2)^0,7,c
  3182  001EB4                     l2835:
  3183  001EB4  90D8               	bcf	status,0,c
  3184  001EB6  320A               	rrcf	___xxtofl@exp^0,f,c
  3185  001EB8  C00A  F005         	movff	___xxtofl@exp,??___xxtofl
  3186  001EBC  6A06               	clrf	(??___xxtofl+1)^0,c
  3187  001EBE  6A07               	clrf	(??___xxtofl+2)^0,c
  3188  001EC0  6A08               	clrf	(??___xxtofl+3)^0,c
  3189  001EC2  C005  F008         	movff	??___xxtofl,??___xxtofl+3
  3190  001EC6  6A07               	clrf	(??___xxtofl+2)^0,c
  3191  001EC8  6A06               	clrf	(??___xxtofl+1)^0,c
  3192  001ECA  6A05               	clrf	??___xxtofl^0,c
  3193  001ECC  5005               	movf	??___xxtofl^0,w,c
  3194  001ECE  120B               	iorwf	___xxtofl@arg^0,f,c
  3195  001ED0  5006               	movf	(??___xxtofl+1)^0,w,c
  3196  001ED2  120C               	iorwf	(___xxtofl@arg+1)^0,f,c
  3197  001ED4  5007               	movf	(??___xxtofl+2)^0,w,c
  3198  001ED6  120D               	iorwf	(___xxtofl@arg+2)^0,f,c
  3199  001ED8  5008               	movf	(??___xxtofl+3)^0,w,c
  3200  001EDA  120E               	iorwf	(___xxtofl@arg+3)^0,f,c
  3201  001EDC  5009               	movf	___xxtofl@sign^0,w,c
  3202  001EDE  B4D8               	btfsc	status,2,c
  3203  001EE0  EF74  F00F         	goto	u3081
  3204  001EE4  EF76  F00F         	goto	u3080
  3205  001EE8                     u3081:
  3206  001EE8  EF7E  F00F         	goto	l2845
  3207  001EEC                     u3080:
  3208  001EEC  BE04               	btfsc	(___xxtofl@val+3)^0,7,c
  3209  001EEE  EF7D  F00F         	goto	u3090
  3210  001EF2  EF7B  F00F         	goto	u3091
  3211  001EF6                     u3091:
  3212  001EF6  EF7E  F00F         	goto	l2845
  3213  001EFA                     u3090:
  3214  001EFA  8E0E               	bsf	(___xxtofl@arg+3)^0,7,c
  3215  001EFC                     l2845:
  3216  001EFC  C00B  F001         	movff	___xxtofl@arg,?___xxtofl
  3217  001F00  C00C  F002         	movff	___xxtofl@arg+1,?___xxtofl+1
  3218  001F04  C00D  F003         	movff	___xxtofl@arg+2,?___xxtofl+2
  3219  001F08  C00E  F004         	movff	___xxtofl@arg+3,?___xxtofl+3
  3220  001F0C                     l857:
  3221  001F0C  0012               	return		;funcret
  3222  001F0E                     __end_of___xxtofl:
  3223                           	opt callstack 0
  3224                           
  3225 ;; *************** function ___fltol *****************
  3226 ;; Defined at:
  3227 ;;		line 43 in file "C:\Program Files (x86)\Microchip\xc8\v2.10\pic\sources\c99\common\fltol.c"
  3228 ;; Parameters:    Size  Location     Type
  3229 ;;  f1              4   41[COMRAM] unsigned char 
  3230 ;; Auto vars:     Size  Location     Type
  3231 ;;  exp1            1   50[COMRAM] unsigned char 
  3232 ;;  sign1           1   49[COMRAM] unsigned char 
  3233 ;; Return value:  Size  Location     Type
  3234 ;;                  4   41[COMRAM] long 
  3235 ;; Registers used:
  3236 ;;		wreg, status,2, status,0
  3237 ;; Tracked objects:
  3238 ;;		On entry : 0/0
  3239 ;;		On exit  : 0/0
  3240 ;;		Unchanged: 0/0
  3241 ;; Data sizes:     COMRAM   BANK0   BANK1   BANK2   BANK3   BANK4   BANK5   BANK6   BANK7
  3242 ;;      Params:         4       0       0       0       0       0       0       0       0
  3243 ;;      Locals:         2       0       0       0       0       0       0       0       0
  3244 ;;      Temps:          4       0       0       0       0       0       0       0       0
  3245 ;;      Totals:        10       0       0       0       0       0       0       0       0
  3246 ;;Total ram usage:       10 bytes
  3247 ;; Hardware stack levels used:    1
  3248 ;; This function calls:
  3249 ;;		Nothing
  3250 ;; This function is called by:
  3251 ;;		_main
  3252 ;; This function uses a non-reentrant model
  3253 ;;
  3254                           
  3255                           	psect	text14
  3256  0021FA                     __ptext14:
  3257                           	opt callstack 0
  3258  0021FA                     ___fltol:
  3259                           	opt callstack 30
  3260  0021FA  342C               	rlcf	(___fltol@f1+2)^0,w,c
  3261  0021FC  342D               	rlcf	(___fltol@f1+3)^0,w,c
  3262  0021FE  6E33               	movwf	___fltol@exp1^0,c
  3263  002200  5033               	movf	___fltol@exp1^0,w,c
  3264  002202  A4D8               	btfss	status,2,c
  3265  002204  EF06  F011         	goto	u2931
  3266  002208  EF08  F011         	goto	u2930
  3267  00220C                     u2931:
  3268  00220C  EF12  F011         	goto	l2765
  3269  002210                     u2930:
  3270  002210                     l2761:
  3271  002210  0E00               	movlw	0
  3272  002212  6E2A               	movwf	?___fltol^0,c
  3273  002214  0E00               	movlw	0
  3274  002216  6E2B               	movwf	(?___fltol+1)^0,c
  3275  002218  0E00               	movlw	0
  3276  00221A  6E2C               	movwf	(?___fltol+2)^0,c
  3277  00221C  0E00               	movlw	0
  3278  00221E  6E2D               	movwf	(?___fltol+3)^0,c
  3279  002220  EF7F  F011         	goto	l496
  3280  002224                     l2765:
  3281  002224  C02A  F02E         	movff	___fltol@f1,??___fltol
  3282  002228  C02B  F02F         	movff	___fltol@f1+1,??___fltol+1
  3283  00222C  C02C  F030         	movff	___fltol@f1+2,??___fltol+2
  3284  002230  C02D  F031         	movff	___fltol@f1+3,??___fltol+3
  3285  002234  0E20               	movlw	32
  3286  002236  EF22  F011         	goto	u2940
  3287  00223A                     u2945:
  3288  00223A  90D8               	bcf	status,0,c
  3289  00223C  3231               	rrcf	(??___fltol+3)^0,f,c
  3290  00223E  3230               	rrcf	(??___fltol+2)^0,f,c
  3291  002240  322F               	rrcf	(??___fltol+1)^0,f,c
  3292  002242  322E               	rrcf	??___fltol^0,f,c
  3293  002244                     u2940:
  3294  002244  2EE8               	decfsz	wreg,f,c
  3295  002246  EF1D  F011         	goto	u2945
  3296  00224A  502E               	movf	??___fltol^0,w,c
  3297  00224C  6E32               	movwf	___fltol@sign1^0,c
  3298  00224E  8E2C               	bsf	(___fltol@f1+2)^0,7,c
  3299  002250  0EFF               	movlw	255
  3300  002252  162A               	andwf	___fltol@f1^0,f,c
  3301  002254  0EFF               	movlw	255
  3302  002256  162B               	andwf	(___fltol@f1+1)^0,f,c
  3303  002258  0EFF               	movlw	255
  3304  00225A  162C               	andwf	(___fltol@f1+2)^0,f,c
  3305  00225C  0E00               	movlw	0
  3306  00225E  162D               	andwf	(___fltol@f1+3)^0,f,c
  3307  002260  0E96               	movlw	150
  3308  002262  5E33               	subwf	___fltol@exp1^0,f,c
  3309  002264  BE33               	btfsc	___fltol@exp1^0,7,c
  3310  002266  EF39  F011         	goto	u2950
  3311  00226A  EF37  F011         	goto	u2951
  3312  00226E                     u2951:
  3313  00226E  EF4F  F011         	goto	l2785
  3314  002272                     u2950:
  3315  002272  5033               	movf	___fltol@exp1^0,w,c
  3316  002274  0A80               	xorlw	128
  3317  002276  0F97               	addlw	151
  3318  002278  B0D8               	btfsc	status,0,c
  3319  00227A  EF41  F011         	goto	u2961
  3320  00227E  EF43  F011         	goto	u2960
  3321  002282                     u2961:
  3322  002282  EF45  F011         	goto	l2781
  3323  002286                     u2960:
  3324  002286  EF08  F011         	goto	l2761
  3325  00228A                     l2781:
  3326  00228A  90D8               	bcf	status,0,c
  3327  00228C  322D               	rrcf	(___fltol@f1+3)^0,f,c
  3328  00228E  322C               	rrcf	(___fltol@f1+2)^0,f,c
  3329  002290  322B               	rrcf	(___fltol@f1+1)^0,f,c
  3330  002292  322A               	rrcf	___fltol@f1^0,f,c
  3331  002294  3E33               	incfsz	___fltol@exp1^0,f,c
  3332  002296  EF45  F011         	goto	l2781
  3333  00229A  EF67  F011         	goto	l2795
  3334  00229E                     l2785:
  3335  00229E  0E1F               	movlw	31
  3336  0022A0  6433               	cpfsgt	___fltol@exp1^0,c
  3337  0022A2  EF55  F011         	goto	u2971
  3338  0022A6  EF57  F011         	goto	u2970
  3339  0022AA                     u2971:
  3340  0022AA  EF5F  F011         	goto	l2793
  3341  0022AE                     u2970:
  3342  0022AE  EF08  F011         	goto	l2761
  3343  0022B2                     l2791:
  3344  0022B2  90D8               	bcf	status,0,c
  3345  0022B4  362A               	rlcf	___fltol@f1^0,f,c
  3346  0022B6  362B               	rlcf	(___fltol@f1+1)^0,f,c
  3347  0022B8  362C               	rlcf	(___fltol@f1+2)^0,f,c
  3348  0022BA  362D               	rlcf	(___fltol@f1+3)^0,f,c
  3349  0022BC  0633               	decf	___fltol@exp1^0,f,c
  3350  0022BE                     l2793:
  3351  0022BE  5033               	movf	___fltol@exp1^0,w,c
  3352  0022C0  A4D8               	btfss	status,2,c
  3353  0022C2  EF65  F011         	goto	u2981
  3354  0022C6  EF67  F011         	goto	u2980
  3355  0022CA                     u2981:
  3356  0022CA  EF59  F011         	goto	l2791
  3357  0022CE                     u2980:
  3358  0022CE                     l2795:
  3359  0022CE  5032               	movf	___fltol@sign1^0,w,c
  3360  0022D0  B4D8               	btfsc	status,2,c
  3361  0022D2  EF6D  F011         	goto	u2991
  3362  0022D6  EF6F  F011         	goto	u2990
  3363  0022DA                     u2991:
  3364  0022DA  EF77  F011         	goto	l2799
  3365  0022DE                     u2990:
  3366  0022DE  1E2D               	comf	(___fltol@f1+3)^0,f,c
  3367  0022E0  1E2C               	comf	(___fltol@f1+2)^0,f,c
  3368  0022E2  1E2B               	comf	(___fltol@f1+1)^0,f,c
  3369  0022E4  6C2A               	negf	___fltol@f1^0,c
  3370  0022E6  0E00               	movlw	0
  3371  0022E8  222B               	addwfc	(___fltol@f1+1)^0,f,c
  3372  0022EA  222C               	addwfc	(___fltol@f1+2)^0,f,c
  3373  0022EC  222D               	addwfc	(___fltol@f1+3)^0,f,c
  3374  0022EE                     l2799:
  3375  0022EE  C02A  F02A         	movff	___fltol@f1,?___fltol
  3376  0022F2  C02B  F02B         	movff	___fltol@f1+1,?___fltol+1
  3377  0022F6  C02C  F02C         	movff	___fltol@f1+2,?___fltol+2
  3378  0022FA  C02D  F02D         	movff	___fltol@f1+3,?___fltol+3
  3379  0022FE                     l496:
  3380  0022FE  0012               	return		;funcret
  3381  002300                     __end_of___fltol:
  3382                           	opt callstack 0
  3383                           
  3384 ;; *************** function ___flsub *****************
  3385 ;; Defined at:
  3386 ;;		line 245 in file "C:\Program Files (x86)\Microchip\xc8\v2.10\pic\sources\c99\common\sprcadd.c"
  3387 ;; Parameters:    Size  Location     Type
  3388 ;;  b               4   41[COMRAM] long 
  3389 ;;  a               4   45[COMRAM] long 
  3390 ;; Auto vars:     Size  Location     Type
  3391 ;;		None
  3392 ;; Return value:  Size  Location     Type
  3393 ;;                  4   41[COMRAM] long 
  3394 ;; Registers used:
  3395 ;;		wreg, status,2, status,0, cstack
  3396 ;; Tracked objects:
  3397 ;;		On entry : 0/0
  3398 ;;		On exit  : 0/0
  3399 ;;		Unchanged: 0/0
  3400 ;; Data sizes:     COMRAM   BANK0   BANK1   BANK2   BANK3   BANK4   BANK5   BANK6   BANK7
  3401 ;;      Params:         8       0       0       0       0       0       0       0       0
  3402 ;;      Locals:         0       0       0       0       0       0       0       0       0
  3403 ;;      Temps:          0       0       0       0       0       0       0       0       0
  3404 ;;      Totals:         8       0       0       0       0       0       0       0       0
  3405 ;;Total ram usage:        8 bytes
  3406 ;; Hardware stack levels used:    1
  3407 ;; Hardware stack levels required when called:    1
  3408 ;; This function calls:
  3409 ;;		___fladd
  3410 ;; This function is called by:
  3411 ;;		_main
  3412 ;; This function uses a non-reentrant model
  3413 ;;
  3414                           
  3415                           	psect	text15
  3416  00268E                     __ptext15:
  3417                           	opt callstack 0
  3418  00268E                     ___flsub:
  3419                           	opt callstack 29
  3420  00268E  0E00               	movlw	0
  3421  002690  1A2E               	xorwf	___flsub@a^0,f,c
  3422  002692  0E00               	movlw	0
  3423  002694  1A2F               	xorwf	(___flsub@a+1)^0,f,c
  3424  002696  0E00               	movlw	0
  3425  002698  1A30               	xorwf	(___flsub@a+2)^0,f,c
  3426  00269A  0E80               	movlw	128
  3427  00269C  1A31               	xorwf	(___flsub@a+3)^0,f,c
  3428  00269E  C02A  F01A         	movff	___flsub@b,___fladd@b
  3429  0026A2  C02B  F01B         	movff	___flsub@b+1,___fladd@b+1
  3430  0026A6  C02C  F01C         	movff	___flsub@b+2,___fladd@b+2
  3431  0026AA  C02D  F01D         	movff	___flsub@b+3,___fladd@b+3
  3432  0026AE  C02E  F01E         	movff	___flsub@a,___fladd@a
  3433  0026B2  C02F  F01F         	movff	___flsub@a+1,___fladd@a+1
  3434  0026B6  C030  F020         	movff	___flsub@a+2,___fladd@a+2
  3435  0026BA  C031  F021         	movff	___flsub@a+3,___fladd@a+3
  3436  0026BE  EC03  F004         	call	___fladd	;wreg free
  3437  0026C2  C01A  F02A         	movff	?___fladd,?___flsub
  3438  0026C6  C01B  F02B         	movff	?___fladd+1,?___flsub+1
  3439  0026CA  C01C  F02C         	movff	?___fladd+2,?___flsub+2
  3440  0026CE  C01D  F02D         	movff	?___fladd+3,?___flsub+3
  3441  0026D2  0012               	return		;funcret
  3442  0026D4                     __end_of___flsub:
  3443                           	opt callstack 0
  3444                           
  3445 ;; *************** function ___fladd *****************
  3446 ;; Defined at:
  3447 ;;		line 10 in file "C:\Program Files (x86)\Microchip\xc8\v2.10\pic\sources\c99\common\sprcadd.c"
  3448 ;; Parameters:    Size  Location     Type
  3449 ;;  b               4   25[COMRAM] long 
  3450 ;;  a               4   29[COMRAM] long 
  3451 ;; Auto vars:     Size  Location     Type
  3452 ;;  grs             1   40[COMRAM] unsigned char 
  3453 ;;  bexp            1   39[COMRAM] unsigned char 
  3454 ;;  aexp            1   38[COMRAM] unsigned char 
  3455 ;;  signs           1   37[COMRAM] unsigned char 
  3456 ;; Return value:  Size  Location     Type
  3457 ;;                  4   25[COMRAM] unsigned char 
  3458 ;; Registers used:
  3459 ;;		wreg, status,2, status,0
  3460 ;; Tracked objects:
  3461 ;;		On entry : 0/0
  3462 ;;		On exit  : 0/0
  3463 ;;		Unchanged: 0/0
  3464 ;; Data sizes:     COMRAM   BANK0   BANK1   BANK2   BANK3   BANK4   BANK5   BANK6   BANK7
  3465 ;;      Params:         8       0       0       0       0       0       0       0       0
  3466 ;;      Locals:         4       0       0       0       0       0       0       0       0
  3467 ;;      Temps:          4       0       0       0       0       0       0       0       0
  3468 ;;      Totals:        16       0       0       0       0       0       0       0       0
  3469 ;;Total ram usage:       16 bytes
  3470 ;; Hardware stack levels used:    1
  3471 ;; This function calls:
  3472 ;;		Nothing
  3473 ;; This function is called by:
  3474 ;;		_main
  3475 ;;		___flsub
  3476 ;; This function uses a non-reentrant model
  3477 ;;
  3478                           
  3479                           	psect	text16
  3480  000806                     __ptext16:
  3481                           	opt callstack 0
  3482  000806                     ___fladd:
  3483                           	opt callstack 29
  3484  000806  501D               	movf	(___fladd@b+3)^0,w,c
  3485  000808  0B80               	andlw	128
  3486  00080A  6E26               	movwf	___fladd@signs^0,c
  3487  00080C  501D               	movf	(___fladd@b+3)^0,w,c
  3488  00080E  241D               	addwf	(___fladd@b+3)^0,w,c
  3489  000810  6E28               	movwf	___fladd@bexp^0,c
  3490  000812  AE1C               	btfss	(___fladd@b+2)^0,7,c
  3491  000814  EF0E  F004         	goto	u2041
  3492  000818  EF10  F004         	goto	u2040
  3493  00081C                     u2041:
  3494  00081C  EF11  F004         	goto	l2229
  3495  000820                     u2040:
  3496  000820  8028               	bsf	___fladd@bexp^0,0,c
  3497  000822                     l2229:
  3498  000822  5028               	movf	___fladd@bexp^0,w,c
  3499  000824  B4D8               	btfsc	status,2,c
  3500  000826  EF17  F004         	goto	u2051
  3501  00082A  EF19  F004         	goto	u2050
  3502  00082E                     u2051:
  3503  00082E  EF2E  F004         	goto	l2239
  3504  000832                     u2050:
  3505  000832  2828               	incf	___fladd@bexp^0,w,c
  3506  000834  A4D8               	btfss	status,2,c
  3507  000836  EF1F  F004         	goto	u2061
  3508  00083A  EF21  F004         	goto	u2060
  3509  00083E                     u2061:
  3510  00083E  EF29  F004         	goto	l2235
  3511  000842                     u2060:
  3512  000842  0E00               	movlw	0
  3513  000844  6E1A               	movwf	___fladd@b^0,c
  3514  000846  0E00               	movlw	0
  3515  000848  6E1B               	movwf	(___fladd@b+1)^0,c
  3516  00084A  0E00               	movlw	0
  3517  00084C  6E1C               	movwf	(___fladd@b+2)^0,c
  3518  00084E  0E00               	movlw	0
  3519  000850  6E1D               	movwf	(___fladd@b+3)^0,c
  3520  000852                     l2235:
  3521  000852  8E1C               	bsf	(___fladd@b+2)^0,7,c
  3522  000854  0E00               	movlw	0
  3523  000856  6E1D               	movwf	(___fladd@b+3)^0,c
  3524  000858  EF36  F004         	goto	l2241
  3525  00085C                     l2239:
  3526  00085C  0E00               	movlw	0
  3527  00085E  6E1A               	movwf	___fladd@b^0,c
  3528  000860  0E00               	movlw	0
  3529  000862  6E1B               	movwf	(___fladd@b+1)^0,c
  3530  000864  0E00               	movlw	0
  3531  000866  6E1C               	movwf	(___fladd@b+2)^0,c
  3532  000868  0E00               	movlw	0
  3533  00086A  6E1D               	movwf	(___fladd@b+3)^0,c
  3534  00086C                     l2241:
  3535  00086C  5021               	movf	(___fladd@a+3)^0,w,c
  3536  00086E  0B80               	andlw	128
  3537  000870  6E27               	movwf	___fladd@aexp^0,c
  3538  000872  5026               	movf	___fladd@signs^0,w,c
  3539  000874  1827               	xorwf	___fladd@aexp^0,w,c
  3540  000876  B4D8               	btfsc	status,2,c
  3541  000878  EF40  F004         	goto	u2071
  3542  00087C  EF42  F004         	goto	u2070
  3543  000880                     u2071:
  3544  000880  EF43  F004         	goto	l2247
  3545  000884                     u2070:
  3546  000884  8C26               	bsf	___fladd@signs^0,6,c
  3547  000886                     l2247:
  3548  000886  5021               	movf	(___fladd@a+3)^0,w,c
  3549  000888  2421               	addwf	(___fladd@a+3)^0,w,c
  3550  00088A  6E27               	movwf	___fladd@aexp^0,c
  3551  00088C  AE20               	btfss	(___fladd@a+2)^0,7,c
  3552  00088E  EF4B  F004         	goto	u2081
  3553  000892  EF4D  F004         	goto	u2080
  3554  000896                     u2081:
  3555  000896  EF4E  F004         	goto	l2253
  3556  00089A                     u2080:
  3557  00089A  8027               	bsf	___fladd@aexp^0,0,c
  3558  00089C                     l2253:
  3559  00089C  5027               	movf	___fladd@aexp^0,w,c
  3560  00089E  B4D8               	btfsc	status,2,c
  3561  0008A0  EF54  F004         	goto	u2091
  3562  0008A4  EF56  F004         	goto	u2090
  3563  0008A8                     u2091:
  3564  0008A8  EF6B  F004         	goto	l2263
  3565  0008AC                     u2090:
  3566  0008AC  2827               	incf	___fladd@aexp^0,w,c
  3567  0008AE  A4D8               	btfss	status,2,c
  3568  0008B0  EF5C  F004         	goto	u2101
  3569  0008B4  EF5E  F004         	goto	u2100
  3570  0008B8                     u2101:
  3571  0008B8  EF66  F004         	goto	l2259
  3572  0008BC                     u2100:
  3573  0008BC  0E00               	movlw	0
  3574  0008BE  6E1E               	movwf	___fladd@a^0,c
  3575  0008C0  0E00               	movlw	0
  3576  0008C2  6E1F               	movwf	(___fladd@a+1)^0,c
  3577  0008C4  0E00               	movlw	0
  3578  0008C6  6E20               	movwf	(___fladd@a+2)^0,c
  3579  0008C8  0E00               	movlw	0
  3580  0008CA  6E21               	movwf	(___fladd@a+3)^0,c
  3581  0008CC                     l2259:
  3582  0008CC  8E20               	bsf	(___fladd@a+2)^0,7,c
  3583  0008CE  0E00               	movlw	0
  3584  0008D0  6E21               	movwf	(___fladd@a+3)^0,c
  3585  0008D2  EF73  F004         	goto	l2265
  3586  0008D6                     l2263:
  3587  0008D6  0E00               	movlw	0
  3588  0008D8  6E1E               	movwf	___fladd@a^0,c
  3589  0008DA  0E00               	movlw	0
  3590  0008DC  6E1F               	movwf	(___fladd@a+1)^0,c
  3591  0008DE  0E00               	movlw	0
  3592  0008E0  6E20               	movwf	(___fladd@a+2)^0,c
  3593  0008E2  0E00               	movlw	0
  3594  0008E4  6E21               	movwf	(___fladd@a+3)^0,c
  3595  0008E6                     l2265:
  3596  0008E6  5028               	movf	___fladd@bexp^0,w,c
  3597  0008E8  5C27               	subwf	___fladd@aexp^0,w,c
  3598  0008EA  B0D8               	btfsc	status,0,c
  3599  0008EC  EF7A  F004         	goto	u2111
  3600  0008F0  EF7C  F004         	goto	u2110
  3601  0008F4                     u2111:
  3602  0008F4  EFA3  F004         	goto	l2301
  3603  0008F8                     u2110:
  3604  0008F8  AC26               	btfss	___fladd@signs^0,6,c
  3605  0008FA  EF81  F004         	goto	u2121
  3606  0008FE  EF83  F004         	goto	u2120
  3607  000902                     u2121:
  3608  000902  EF85  F004         	goto	l2271
  3609  000906                     u2120:
  3610  000906  0E80               	movlw	128
  3611  000908  1A26               	xorwf	___fladd@signs^0,f,c
  3612  00090A                     l2271:
  3613  00090A  C028  F029         	movff	___fladd@bexp,___fladd@grs
  3614  00090E  C027  F028         	movff	___fladd@aexp,___fladd@bexp
  3615  000912  C029  F027         	movff	___fladd@grs,___fladd@aexp
  3616  000916  C01A  F029         	movff	___fladd@b,___fladd@grs
  3617  00091A  C01E  F01A         	movff	___fladd@a,___fladd@b
  3618  00091E  C029  F01E         	movff	___fladd@grs,___fladd@a
  3619  000922  C01B  F029         	movff	___fladd@b+1,___fladd@grs
  3620  000926  C01F  F01B         	movff	___fladd@a+1,___fladd@b+1
  3621  00092A  C029  F01F         	movff	___fladd@grs,___fladd@a+1
  3622  00092E  C01C  F029         	movff	___fladd@b+2,___fladd@grs
  3623  000932  C020  F01C         	movff	___fladd@a+2,___fladd@b+2
  3624  000936  C029  F020         	movff	___fladd@grs,___fladd@a+2
  3625  00093A  C01D  F029         	movff	___fladd@b+3,___fladd@grs
  3626  00093E  C021  F01D         	movff	___fladd@a+3,___fladd@b+3
  3627  000942  C029  F021         	movff	___fladd@grs,___fladd@a+3
  3628  000946                     l2301:
  3629  000946  0E00               	movlw	0
  3630  000948  6E29               	movwf	___fladd@grs^0,c
  3631  00094A  5028               	movf	___fladd@bexp^0,w,c
  3632  00094C  C027  F022         	movff	___fladd@aexp,??___fladd
  3633  000950  6A23               	clrf	(??___fladd+1)^0,c
  3634  000952  5E22               	subwf	??___fladd^0,f,c
  3635  000954  0E00               	movlw	0
  3636  000956  5A23               	subwfb	(??___fladd+1)^0,f,c
  3637  000958  BE23               	btfsc	(??___fladd+1)^0,7,c
  3638  00095A  EFB8  F004         	goto	u2131
  3639  00095E  5023               	movf	(??___fladd+1)^0,w,c
  3640  000960  E109               	bnz	u2130
  3641  000962  0E1A               	movlw	26
  3642  000964  5C22               	subwf	??___fladd^0,w,c
  3643  000966  A0D8               	btfss	status,0,c
  3644  000968  EFB8  F004         	goto	u2131
  3645  00096C  EFBA  F004         	goto	u2130
  3646  000970                     u2131:
  3647  000970  EFF1  F004         	goto	l728
  3648  000974                     u2130:
  3649  000974  501A               	movf	___fladd@b^0,w,c
  3650  000976  101B               	iorwf	(___fladd@b+1)^0,w,c
  3651  000978  101C               	iorwf	(___fladd@b+2)^0,w,c
  3652  00097A  101D               	iorwf	(___fladd@b+3)^0,w,c
  3653  00097C  A4D8               	btfss	status,2,c
  3654  00097E  EFC3  F004         	goto	u2141
  3655  000982  EFC6  F004         	goto	u2140
  3656  000986                     u2141:
  3657  000986  0E01               	movlw	1
  3658  000988  EFC7  F004         	goto	u2150
  3659  00098C                     u2140:
  3660  00098C  0E00               	movlw	0
  3661  00098E                     u2150:
  3662  00098E  6E29               	movwf	___fladd@grs^0,c
  3663  000990  0E00               	movlw	0
  3664  000992  6E1A               	movwf	___fladd@b^0,c
  3665  000994  0E00               	movlw	0
  3666  000996  6E1B               	movwf	(___fladd@b+1)^0,c
  3667  000998  0E00               	movlw	0
  3668  00099A  6E1C               	movwf	(___fladd@b+2)^0,c
  3669  00099C  0E00               	movlw	0
  3670  00099E  6E1D               	movwf	(___fladd@b+3)^0,c
  3671  0009A0  C027  F028         	movff	___fladd@aexp,___fladd@bexp
  3672  0009A4  EFFA  F004         	goto	l727
  3673  0009A8                     l729:
  3674  0009A8  A029               	btfss	___fladd@grs^0,0,c
  3675  0009AA  EFD9  F004         	goto	u2161
  3676  0009AE  EFDB  F004         	goto	u2160
  3677  0009B2                     u2161:
  3678  0009B2  EFE1  F004         	goto	l2313
  3679  0009B6                     u2160:
  3680  0009B6  90D8               	bcf	status,0,c
  3681  0009B8  3029               	rrcf	___fladd@grs^0,w,c
  3682  0009BA  0901               	iorlw	1
  3683  0009BC  6E29               	movwf	___fladd@grs^0,c
  3684  0009BE  EFE3  F004         	goto	l2315
  3685  0009C2                     l2313:
  3686  0009C2  90D8               	bcf	status,0,c
  3687  0009C4  3229               	rrcf	___fladd@grs^0,f,c
  3688  0009C6                     l2315:
  3689  0009C6  A01A               	btfss	___fladd@b^0,0,c
  3690  0009C8  EFE8  F004         	goto	u2171
  3691  0009CC  EFEA  F004         	goto	u2170
  3692  0009D0                     u2171:
  3693  0009D0  EFEB  F004         	goto	l2319
  3694  0009D4                     u2170:
  3695  0009D4  8E29               	bsf	___fladd@grs^0,7,c
  3696  0009D6                     l2319:
  3697  0009D6  341D               	rlcf	(___fladd@b+3)^0,w,c
  3698  0009D8  321D               	rrcf	(___fladd@b+3)^0,f,c
  3699  0009DA  321C               	rrcf	(___fladd@b+2)^0,f,c
  3700  0009DC  321B               	rrcf	(___fladd@b+1)^0,f,c
  3701  0009DE  321A               	rrcf	___fladd@b^0,f,c
  3702  0009E0  2A28               	incf	___fladd@bexp^0,f,c
  3703  0009E2                     l728:
  3704  0009E2  5027               	movf	___fladd@aexp^0,w,c
  3705  0009E4  5C28               	subwf	___fladd@bexp^0,w,c
  3706  0009E6  A0D8               	btfss	status,0,c
  3707  0009E8  EFF8  F004         	goto	u2181
  3708  0009EC  EFFA  F004         	goto	u2180
  3709  0009F0                     u2181:
  3710  0009F0  EFD4  F004         	goto	l729
  3711  0009F4                     u2180:
  3712  0009F4                     l727:
  3713  0009F4  BC26               	btfsc	___fladd@signs^0,6,c
  3714  0009F6  EFFF  F004         	goto	u2191
  3715  0009FA  EF01  F005         	goto	u2190
  3716  0009FE                     u2191:
  3717  0009FE  EF41  F005         	goto	l2347
  3718  000A02                     u2190:
  3719  000A02  5028               	movf	___fladd@bexp^0,w,c
  3720  000A04  A4D8               	btfss	status,2,c
  3721  000A06  EF07  F005         	goto	u2201
  3722  000A0A  EF09  F005         	goto	u2200
  3723  000A0E                     u2201:
  3724  000A0E  EF13  F005         	goto	l2329
  3725  000A12                     u2200:
  3726  000A12  0E00               	movlw	0
  3727  000A14  6E1A               	movwf	?___fladd^0,c
  3728  000A16  0E00               	movlw	0
  3729  000A18  6E1B               	movwf	(?___fladd+1)^0,c
  3730  000A1A  0E00               	movlw	0
  3731  000A1C  6E1C               	movwf	(?___fladd+2)^0,c
  3732  000A1E  0E00               	movlw	0
  3733  000A20  6E1D               	movwf	(?___fladd+3)^0,c
  3734  000A22  EF62  F006         	goto	l736
  3735  000A26                     l2329:
  3736  000A26  501E               	movf	___fladd@a^0,w,c
  3737  000A28  261A               	addwf	___fladd@b^0,f,c
  3738  000A2A  501F               	movf	(___fladd@a+1)^0,w,c
  3739  000A2C  221B               	addwfc	(___fladd@b+1)^0,f,c
  3740  000A2E  5020               	movf	(___fladd@a+2)^0,w,c
  3741  000A30  221C               	addwfc	(___fladd@b+2)^0,f,c
  3742  000A32  5021               	movf	(___fladd@a+3)^0,w,c
  3743  000A34  221D               	addwfc	(___fladd@b+3)^0,f,c
  3744  000A36  A01D               	btfss	(___fladd@b+3)^0,0,c
  3745  000A38  EF20  F005         	goto	u2211
  3746  000A3C  EF22  F005         	goto	u2210
  3747  000A40                     u2211:
  3748  000A40  EFCE  F005         	goto	l2383
  3749  000A44                     u2210:
  3750  000A44  A029               	btfss	___fladd@grs^0,0,c
  3751  000A46  EF27  F005         	goto	u2221
  3752  000A4A  EF29  F005         	goto	u2220
  3753  000A4E                     u2221:
  3754  000A4E  EF2F  F005         	goto	l2337
  3755  000A52                     u2220:
  3756  000A52  90D8               	bcf	status,0,c
  3757  000A54  3029               	rrcf	___fladd@grs^0,w,c
  3758  000A56  0901               	iorlw	1
  3759  000A58  6E29               	movwf	___fladd@grs^0,c
  3760  000A5A  EF31  F005         	goto	l2339
  3761  000A5E                     l2337:
  3762  000A5E  90D8               	bcf	status,0,c
  3763  000A60  3229               	rrcf	___fladd@grs^0,f,c
  3764  000A62                     l2339:
  3765  000A62  A01A               	btfss	___fladd@b^0,0,c
  3766  000A64  EF36  F005         	goto	u2231
  3767  000A68  EF38  F005         	goto	u2230
  3768  000A6C                     u2231:
  3769  000A6C  EF39  F005         	goto	l2343
  3770  000A70                     u2230:
  3771  000A70  8E29               	bsf	___fladd@grs^0,7,c
  3772  000A72                     l2343:
  3773  000A72  341D               	rlcf	(___fladd@b+3)^0,w,c
  3774  000A74  321D               	rrcf	(___fladd@b+3)^0,f,c
  3775  000A76  321C               	rrcf	(___fladd@b+2)^0,f,c
  3776  000A78  321B               	rrcf	(___fladd@b+1)^0,f,c
  3777  000A7A  321A               	rrcf	___fladd@b^0,f,c
  3778  000A7C  2A28               	incf	___fladd@bexp^0,f,c
  3779  000A7E  EFCE  F005         	goto	l2383
  3780  000A82                     l2347:
  3781  000A82  501E               	movf	___fladd@a^0,w,c
  3782  000A84  5C1A               	subwf	___fladd@b^0,w,c
  3783  000A86  501F               	movf	(___fladd@a+1)^0,w,c
  3784  000A88  581B               	subwfb	(___fladd@b+1)^0,w,c
  3785  000A8A  5020               	movf	(___fladd@a+2)^0,w,c
  3786  000A8C  581C               	subwfb	(___fladd@b+2)^0,w,c
  3787  000A8E  501D               	movf	(___fladd@b+3)^0,w,c
  3788  000A90  0A80               	xorlw	128
  3789  000A92  6E22               	movwf	??___fladd^0,c
  3790  000A94  5021               	movf	(___fladd@a+3)^0,w,c
  3791  000A96  0A80               	xorlw	128
  3792  000A98  5822               	subwfb	??___fladd^0,w,c
  3793  000A9A  B0D8               	btfsc	status,0,c
  3794  000A9C  EF52  F005         	goto	u2241
  3795  000AA0  EF54  F005         	goto	u2240
  3796  000AA4                     u2241:
  3797  000AA4  EF7F  F005         	goto	l2357
  3798  000AA8                     u2240:
  3799  000AA8  501A               	movf	___fladd@b^0,w,c
  3800  000AAA  5C1E               	subwf	___fladd@a^0,w,c
  3801  000AAC  6E22               	movwf	??___fladd^0,c
  3802  000AAE  501B               	movf	(___fladd@b+1)^0,w,c
  3803  000AB0  581F               	subwfb	(___fladd@a+1)^0,w,c
  3804  000AB2  6E23               	movwf	(??___fladd+1)^0,c
  3805  000AB4  501C               	movf	(___fladd@b+2)^0,w,c
  3806  000AB6  5820               	subwfb	(___fladd@a+2)^0,w,c
  3807  000AB8  6E24               	movwf	(??___fladd+2)^0,c
  3808  000ABA  501D               	movf	(___fladd@b+3)^0,w,c
  3809  000ABC  5821               	subwfb	(___fladd@a+3)^0,w,c
  3810  000ABE  6E25               	movwf	(??___fladd+3)^0,c
  3811  000AC0  0EFF               	movlw	255
  3812  000AC2  2422               	addwf	??___fladd^0,w,c
  3813  000AC4  6E1A               	movwf	___fladd@b^0,c
  3814  000AC6  0EFF               	movlw	255
  3815  000AC8  2023               	addwfc	(??___fladd+1)^0,w,c
  3816  000ACA  6E1B               	movwf	(___fladd@b+1)^0,c
  3817  000ACC  0EFF               	movlw	255
  3818  000ACE  2024               	addwfc	(??___fladd+2)^0,w,c
  3819  000AD0  6E1C               	movwf	(___fladd@b+2)^0,c
  3820  000AD2  0EFF               	movlw	255
  3821  000AD4  2025               	addwfc	(??___fladd+3)^0,w,c
  3822  000AD6  6E1D               	movwf	(___fladd@b+3)^0,c
  3823  000AD8  0E80               	movlw	128
  3824  000ADA  1A26               	xorwf	___fladd@signs^0,f,c
  3825  000ADC  6C29               	negf	___fladd@grs^0,c
  3826  000ADE  5029               	movf	___fladd@grs^0,w,c
  3827  000AE0  A4D8               	btfss	status,2,c
  3828  000AE2  EF75  F005         	goto	u2251
  3829  000AE6  EF77  F005         	goto	u2250
  3830  000AEA                     u2251:
  3831  000AEA  EF87  F005         	goto	l744
  3832  000AEE                     u2250:
  3833  000AEE  0E01               	movlw	1
  3834  000AF0  261A               	addwf	___fladd@b^0,f,c
  3835  000AF2  0E00               	movlw	0
  3836  000AF4  221B               	addwfc	(___fladd@b+1)^0,f,c
  3837  000AF6  221C               	addwfc	(___fladd@b+2)^0,f,c
  3838  000AF8  221D               	addwfc	(___fladd@b+3)^0,f,c
  3839  000AFA  EF87  F005         	goto	l744
  3840  000AFE                     l2357:
  3841  000AFE  501E               	movf	___fladd@a^0,w,c
  3842  000B00  5E1A               	subwf	___fladd@b^0,f,c
  3843  000B02  501F               	movf	(___fladd@a+1)^0,w,c
  3844  000B04  5A1B               	subwfb	(___fladd@b+1)^0,f,c
  3845  000B06  5020               	movf	(___fladd@a+2)^0,w,c
  3846  000B08  5A1C               	subwfb	(___fladd@b+2)^0,f,c
  3847  000B0A  5021               	movf	(___fladd@a+3)^0,w,c
  3848  000B0C  5A1D               	subwfb	(___fladd@b+3)^0,f,c
  3849  000B0E                     l744:
  3850  000B0E  501A               	movf	___fladd@b^0,w,c
  3851  000B10  101B               	iorwf	(___fladd@b+1)^0,w,c
  3852  000B12  101C               	iorwf	(___fladd@b+2)^0,w,c
  3853  000B14  101D               	iorwf	(___fladd@b+3)^0,w,c
  3854  000B16  A4D8               	btfss	status,2,c
  3855  000B18  EF90  F005         	goto	u2261
  3856  000B1C  EF92  F005         	goto	u2260
  3857  000B20                     u2261:
  3858  000B20  EFC7  F005         	goto	l2381
  3859  000B24                     u2260:
  3860  000B24  5029               	movf	___fladd@grs^0,w,c
  3861  000B26  A4D8               	btfss	status,2,c
  3862  000B28  EF98  F005         	goto	u2271
  3863  000B2C  EF9A  F005         	goto	u2270
  3864  000B30                     u2271:
  3865  000B30  EFC7  F005         	goto	l2381
  3866  000B34                     u2270:
  3867  000B34  0E00               	movlw	0
  3868  000B36  6E1A               	movwf	?___fladd^0,c
  3869  000B38  0E00               	movlw	0
  3870  000B3A  6E1B               	movwf	(?___fladd+1)^0,c
  3871  000B3C  0E00               	movlw	0
  3872  000B3E  6E1C               	movwf	(?___fladd+2)^0,c
  3873  000B40  0E00               	movlw	0
  3874  000B42  6E1D               	movwf	(?___fladd+3)^0,c
  3875  000B44  EF62  F006         	goto	l736
  3876  000B48                     l2365:
  3877  000B48  90D8               	bcf	status,0,c
  3878  000B4A  361A               	rlcf	___fladd@b^0,f,c
  3879  000B4C  361B               	rlcf	(___fladd@b+1)^0,f,c
  3880  000B4E  361C               	rlcf	(___fladd@b+2)^0,f,c
  3881  000B50  361D               	rlcf	(___fladd@b+3)^0,f,c
  3882  000B52  AE29               	btfss	___fladd@grs^0,7,c
  3883  000B54  EFAE  F005         	goto	u2281
  3884  000B58  EFB0  F005         	goto	u2280
  3885  000B5C                     u2281:
  3886  000B5C  EFB1  F005         	goto	l2371
  3887  000B60                     u2280:
  3888  000B60  801A               	bsf	___fladd@b^0,0,c
  3889  000B62                     l2371:
  3890  000B62  A029               	btfss	___fladd@grs^0,0,c
  3891  000B64  EFB6  F005         	goto	u2291
  3892  000B68  EFB8  F005         	goto	u2290
  3893  000B6C                     u2291:
  3894  000B6C  EFBC  F005         	goto	l2375
  3895  000B70                     u2290:
  3896  000B70  80D8               	bsf	status,0,c
  3897  000B72  3629               	rlcf	___fladd@grs^0,f,c
  3898  000B74  EFBE  F005         	goto	l2377
  3899  000B78                     l2375:
  3900  000B78  90D8               	bcf	status,0,c
  3901  000B7A  3629               	rlcf	___fladd@grs^0,f,c
  3902  000B7C                     l2377:
  3903  000B7C  5028               	movf	___fladd@bexp^0,w,c
  3904  000B7E  B4D8               	btfsc	status,2,c
  3905  000B80  EFC4  F005         	goto	u2301
  3906  000B84  EFC6  F005         	goto	u2300
  3907  000B88                     u2301:
  3908  000B88  EFC7  F005         	goto	l2381
  3909  000B8C                     u2300:
  3910  000B8C  0628               	decf	___fladd@bexp^0,f,c
  3911  000B8E                     l2381:
  3912  000B8E  AE1C               	btfss	(___fladd@b+2)^0,7,c
  3913  000B90  EFCC  F005         	goto	u2311
  3914  000B94  EFCE  F005         	goto	u2310
  3915  000B98                     u2311:
  3916  000B98  EFA4  F005         	goto	l2365
  3917  000B9C                     u2310:
  3918  000B9C                     l2383:
  3919  000B9C  0E00               	movlw	0
  3920  000B9E  6E27               	movwf	___fladd@aexp^0,c
  3921  000BA0  AE29               	btfss	___fladd@grs^0,7,c
  3922  000BA2  EFD5  F005         	goto	u2321
  3923  000BA6  EFD7  F005         	goto	u2320
  3924  000BAA                     u2321:
  3925  000BAA  EFEF  F005         	goto	l753
  3926  000BAE                     u2320:
  3927  000BAE  C029  F022         	movff	___fladd@grs,??___fladd
  3928  000BB2  0E7F               	movlw	127
  3929  000BB4  1622               	andwf	??___fladd^0,f,c
  3930  000BB6  B4D8               	btfsc	status,2,c
  3931  000BB8  EFE0  F005         	goto	u2331
  3932  000BBC  EFE2  F005         	goto	u2330
  3933  000BC0                     u2331:
  3934  000BC0  EFE6  F005         	goto	l754
  3935  000BC4                     u2330:
  3936  000BC4                     l2389:
  3937  000BC4  0E01               	movlw	1
  3938  000BC6  6E27               	movwf	___fladd@aexp^0,c
  3939  000BC8  EFEF  F005         	goto	l753
  3940  000BCC                     l754:
  3941  000BCC  A01A               	btfss	___fladd@b^0,0,c
  3942  000BCE  EFEB  F005         	goto	u2341
  3943  000BD2  EFED  F005         	goto	u2340
  3944  000BD6                     u2341:
  3945  000BD6  EFEF  F005         	goto	l753
  3946  000BDA                     u2340:
  3947  000BDA  EFE2  F005         	goto	l2389
  3948  000BDE                     l753:
  3949  000BDE  5027               	movf	___fladd@aexp^0,w,c
  3950  000BE0  B4D8               	btfsc	status,2,c
  3951  000BE2  EFF5  F005         	goto	u2351
  3952  000BE6  EFF7  F005         	goto	u2350
  3953  000BEA                     u2351:
  3954  000BEA  EF22  F006         	goto	l2401
  3955  000BEE                     u2350:
  3956  000BEE  0E01               	movlw	1
  3957  000BF0  261A               	addwf	___fladd@b^0,f,c
  3958  000BF2  0E00               	movlw	0
  3959  000BF4  221B               	addwfc	(___fladd@b+1)^0,f,c
  3960  000BF6  221C               	addwfc	(___fladd@b+2)^0,f,c
  3961  000BF8  221D               	addwfc	(___fladd@b+3)^0,f,c
  3962  000BFA  A01D               	btfss	(___fladd@b+3)^0,0,c
  3963  000BFC  EF02  F006         	goto	u2361
  3964  000C00  EF04  F006         	goto	u2360
  3965  000C04                     u2361:
  3966  000C04  EF22  F006         	goto	l2401
  3967  000C08                     u2360:
  3968  000C08  C01A  F022         	movff	___fladd@b,??___fladd
  3969  000C0C  C01B  F023         	movff	___fladd@b+1,??___fladd+1
  3970  000C10  C01C  F024         	movff	___fladd@b+2,??___fladd+2
  3971  000C14  C01D  F025         	movff	___fladd@b+3,??___fladd+3
  3972  000C18  3425               	rlcf	(??___fladd+3)^0,w,c
  3973  000C1A  3225               	rrcf	(??___fladd+3)^0,f,c
  3974  000C1C  3224               	rrcf	(??___fladd+2)^0,f,c
  3975  000C1E  3223               	rrcf	(??___fladd+1)^0,f,c
  3976  000C20  3222               	rrcf	??___fladd^0,f,c
  3977  000C22  C022  F01A         	movff	??___fladd,___fladd@b
  3978  000C26  C023  F01B         	movff	??___fladd+1,___fladd@b+1
  3979  000C2A  C024  F01C         	movff	??___fladd+2,___fladd@b+2
  3980  000C2E  C025  F01D         	movff	??___fladd+3,___fladd@b+3
  3981  000C32  2828               	incf	___fladd@bexp^0,w,c
  3982  000C34  B4D8               	btfsc	status,2,c
  3983  000C36  EF1F  F006         	goto	u2371
  3984  000C3A  EF21  F006         	goto	u2370
  3985  000C3E                     u2371:
  3986  000C3E  EF22  F006         	goto	l2401
  3987  000C42                     u2370:
  3988  000C42  2A28               	incf	___fladd@bexp^0,f,c
  3989  000C44                     l2401:
  3990  000C44  2828               	incf	___fladd@bexp^0,w,c
  3991  000C46  B4D8               	btfsc	status,2,c
  3992  000C48  EF28  F006         	goto	u2381
  3993  000C4C  EF2A  F006         	goto	u2380
  3994  000C50                     u2381:
  3995  000C50  EF32  F006         	goto	l2405
  3996  000C54                     u2380:
  3997  000C54  5028               	movf	___fladd@bexp^0,w,c
  3998  000C56  A4D8               	btfss	status,2,c
  3999  000C58  EF30  F006         	goto	u2391
  4000  000C5C  EF32  F006         	goto	u2390
  4001  000C60                     u2391:
  4002  000C60  EF44  F006         	goto	l2409
  4003  000C64                     u2390:
  4004  000C64                     l2405:
  4005  000C64  0E00               	movlw	0
  4006  000C66  6E1A               	movwf	___fladd@b^0,c
  4007  000C68  0E00               	movlw	0
  4008  000C6A  6E1B               	movwf	(___fladd@b+1)^0,c
  4009  000C6C  0E00               	movlw	0
  4010  000C6E  6E1C               	movwf	(___fladd@b+2)^0,c
  4011  000C70  0E00               	movlw	0
  4012  000C72  6E1D               	movwf	(___fladd@b+3)^0,c
  4013  000C74  5028               	movf	___fladd@bexp^0,w,c
  4014  000C76  A4D8               	btfss	status,2,c
  4015  000C78  EF40  F006         	goto	u2401
  4016  000C7C  EF42  F006         	goto	u2400
  4017  000C80                     u2401:
  4018  000C80  EF44  F006         	goto	l2409
  4019  000C84                     u2400:
  4020  000C84  0E00               	movlw	0
  4021  000C86  6E26               	movwf	___fladd@signs^0,c
  4022  000C88                     l2409:
  4023  000C88  A028               	btfss	___fladd@bexp^0,0,c
  4024  000C8A  EF49  F006         	goto	u2411
  4025  000C8E  EF4B  F006         	goto	u2410
  4026  000C92                     u2411:
  4027  000C92  EF4E  F006         	goto	l2413
  4028  000C96                     u2410:
  4029  000C96  8E1C               	bsf	(___fladd@b+2)^0,7,c
  4030  000C98  EF4F  F006         	goto	l2415
  4031  000C9C                     l2413:
  4032  000C9C  9E1C               	bcf	(___fladd@b+2)^0,7,c
  4033  000C9E                     l2415:
  4034  000C9E  90D8               	bcf	status,0,c
  4035  000CA0  3028               	rrcf	___fladd@bexp^0,w,c
  4036  000CA2  6E1D               	movwf	(___fladd@b+3)^0,c
  4037  000CA4  AE26               	btfss	___fladd@signs^0,7,c
  4038  000CA6  EF57  F006         	goto	u2421
  4039  000CAA  EF59  F006         	goto	u2420
  4040  000CAE                     u2421:
  4041  000CAE  EF5A  F006         	goto	l2421
  4042  000CB2                     u2420:
  4043  000CB2  8E1D               	bsf	(___fladd@b+3)^0,7,c
  4044  000CB4                     l2421:
  4045  000CB4  C01A  F01A         	movff	___fladd@b,?___fladd
  4046  000CB8  C01B  F01B         	movff	___fladd@b+1,?___fladd+1
  4047  000CBC  C01C  F01C         	movff	___fladd@b+2,?___fladd+2
  4048  000CC0  C01D  F01D         	movff	___fladd@b+3,?___fladd+3
  4049  000CC4                     l736:
  4050  000CC4  0012               	return		;funcret
  4051  000CC6                     __end_of___fladd:
  4052                           	opt callstack 0
  4053                           
  4054 ;; *************** function ___flmul *****************
  4055 ;; Defined at:
  4056 ;;		line 8 in file "C:\Program Files (x86)\Microchip\xc8\v2.10\pic\sources\c99\common\sprcmul.c"
  4057 ;; Parameters:    Size  Location     Type
  4058 ;;  b               4    0[COMRAM] unsigned char 
  4059 ;;  a               4    4[COMRAM] unsigned char 
  4060 ;; Auto vars:     Size  Location     Type
  4061 ;;  prod            4   19[COMRAM] struct .
  4062 ;;  grs             4   13[COMRAM] unsigned long 
  4063 ;;  temp            2   23[COMRAM] struct .
  4064 ;;  bexp            1   18[COMRAM] unsigned char 
  4065 ;;  aexp            1   17[COMRAM] unsigned char 
  4066 ;;  sign            1   12[COMRAM] unsigned char 
  4067 ;; Return value:  Size  Location     Type
  4068 ;;                  4    0[COMRAM] unsigned char 
  4069 ;; Registers used:
  4070 ;;		wreg, status,2, status,0, prodl, prodh
  4071 ;; Tracked objects:
  4072 ;;		On entry : 0/0
  4073 ;;		On exit  : 0/0
  4074 ;;		Unchanged: 0/0
  4075 ;; Data sizes:     COMRAM   BANK0   BANK1   BANK2   BANK3   BANK4   BANK5   BANK6   BANK7
  4076 ;;      Params:         8       0       0       0       0       0       0       0       0
  4077 ;;      Locals:        13       0       0       0       0       0       0       0       0
  4078 ;;      Temps:          4       0       0       0       0       0       0       0       0
  4079 ;;      Totals:        25       0       0       0       0       0       0       0       0
  4080 ;;Total ram usage:       25 bytes
  4081 ;; Hardware stack levels used:    1
  4082 ;; This function calls:
  4083 ;;		Nothing
  4084 ;; This function is called by:
  4085 ;;		_main
  4086 ;; This function uses a non-reentrant model
  4087 ;;
  4088                           
  4089                           	psect	text17
  4090  001100                     __ptext17:
  4091                           	opt callstack 0
  4092  001100                     ___flmul:
  4093                           	opt callstack 30
  4094  001100  5004               	movf	(___flmul@b+3)^0,w,c
  4095  001102  0B80               	andlw	128
  4096  001104  6E0D               	movwf	___flmul@sign^0,c
  4097  001106  5004               	movf	(___flmul@b+3)^0,w,c
  4098  001108  2404               	addwf	(___flmul@b+3)^0,w,c
  4099  00110A  6E13               	movwf	___flmul@bexp^0,c
  4100  00110C  AE03               	btfss	(___flmul@b+2)^0,7,c
  4101  00110E  EF8B  F008         	goto	u2741
  4102  001112  EF8D  F008         	goto	u2740
  4103  001116                     u2741:
  4104  001116  EF8E  F008         	goto	l2629
  4105  00111A                     u2740:
  4106  00111A  8013               	bsf	___flmul@bexp^0,0,c
  4107  00111C                     l2629:
  4108  00111C  5013               	movf	___flmul@bexp^0,w,c
  4109  00111E  B4D8               	btfsc	status,2,c
  4110  001120  EF94  F008         	goto	u2751
  4111  001124  EF96  F008         	goto	u2750
  4112  001128                     u2751:
  4113  001128  EFA9  F008         	goto	l2637
  4114  00112C                     u2750:
  4115  00112C  2813               	incf	___flmul@bexp^0,w,c
  4116  00112E  A4D8               	btfss	status,2,c
  4117  001130  EF9C  F008         	goto	u2761
  4118  001134  EF9E  F008         	goto	u2760
  4119  001138                     u2761:
  4120  001138  EFA6  F008         	goto	l2635
  4121  00113C                     u2760:
  4122  00113C  0E00               	movlw	0
  4123  00113E  6E01               	movwf	___flmul@b^0,c
  4124  001140  0E00               	movlw	0
  4125  001142  6E02               	movwf	(___flmul@b+1)^0,c
  4126  001144  0E00               	movlw	0
  4127  001146  6E03               	movwf	(___flmul@b+2)^0,c
  4128  001148  0E00               	movlw	0
  4129  00114A  6E04               	movwf	(___flmul@b+3)^0,c
  4130  00114C                     l2635:
  4131  00114C  8E03               	bsf	(___flmul@b+2)^0,7,c
  4132  00114E  EFB1  F008         	goto	l2639
  4133  001152                     l2637:
  4134  001152  0E00               	movlw	0
  4135  001154  6E01               	movwf	___flmul@b^0,c
  4136  001156  0E00               	movlw	0
  4137  001158  6E02               	movwf	(___flmul@b+1)^0,c
  4138  00115A  0E00               	movlw	0
  4139  00115C  6E03               	movwf	(___flmul@b+2)^0,c
  4140  00115E  0E00               	movlw	0
  4141  001160  6E04               	movwf	(___flmul@b+3)^0,c
  4142  001162                     l2639:
  4143  001162  5008               	movf	(___flmul@a+3)^0,w,c
  4144  001164  0B80               	andlw	128
  4145  001166  1A0D               	xorwf	___flmul@sign^0,f,c
  4146  001168  5008               	movf	(___flmul@a+3)^0,w,c
  4147  00116A  2408               	addwf	(___flmul@a+3)^0,w,c
  4148  00116C  6E12               	movwf	___flmul@aexp^0,c
  4149  00116E  AE07               	btfss	(___flmul@a+2)^0,7,c
  4150  001170  EFBC  F008         	goto	u2771
  4151  001174  EFBE  F008         	goto	u2770
  4152  001178                     u2771:
  4153  001178  EFBF  F008         	goto	l2647
  4154  00117C                     u2770:
  4155  00117C  8012               	bsf	___flmul@aexp^0,0,c
  4156  00117E                     l2647:
  4157  00117E  5012               	movf	___flmul@aexp^0,w,c
  4158  001180  B4D8               	btfsc	status,2,c
  4159  001182  EFC5  F008         	goto	u2781
  4160  001186  EFC7  F008         	goto	u2780
  4161  00118A                     u2781:
  4162  00118A  EFDA  F008         	goto	l2655
  4163  00118E                     u2780:
  4164  00118E  2812               	incf	___flmul@aexp^0,w,c
  4165  001190  A4D8               	btfss	status,2,c
  4166  001192  EFCD  F008         	goto	u2791
  4167  001196  EFCF  F008         	goto	u2790
  4168  00119A                     u2791:
  4169  00119A  EFD7  F008         	goto	l2653
  4170  00119E                     u2790:
  4171  00119E  0E00               	movlw	0
  4172  0011A0  6E05               	movwf	___flmul@a^0,c
  4173  0011A2  0E00               	movlw	0
  4174  0011A4  6E06               	movwf	(___flmul@a+1)^0,c
  4175  0011A6  0E00               	movlw	0
  4176  0011A8  6E07               	movwf	(___flmul@a+2)^0,c
  4177  0011AA  0E00               	movlw	0
  4178  0011AC  6E08               	movwf	(___flmul@a+3)^0,c
  4179  0011AE                     l2653:
  4180  0011AE  8E07               	bsf	(___flmul@a+2)^0,7,c
  4181  0011B0  EFE2  F008         	goto	l813
  4182  0011B4                     l2655:
  4183  0011B4  0E00               	movlw	0
  4184  0011B6  6E05               	movwf	___flmul@a^0,c
  4185  0011B8  0E00               	movlw	0
  4186  0011BA  6E06               	movwf	(___flmul@a+1)^0,c
  4187  0011BC  0E00               	movlw	0
  4188  0011BE  6E07               	movwf	(___flmul@a+2)^0,c
  4189  0011C0  0E00               	movlw	0
  4190  0011C2  6E08               	movwf	(___flmul@a+3)^0,c
  4191  0011C4                     l813:
  4192  0011C4  5012               	movf	___flmul@aexp^0,w,c
  4193  0011C6  B4D8               	btfsc	status,2,c
  4194  0011C8  EFE8  F008         	goto	u2801
  4195  0011CC  EFEA  F008         	goto	u2800
  4196  0011D0                     u2801:
  4197  0011D0  EFF2  F008         	goto	l2659
  4198  0011D4                     u2800:
  4199  0011D4  5013               	movf	___flmul@bexp^0,w,c
  4200  0011D6  A4D8               	btfss	status,2,c
  4201  0011D8  EFF0  F008         	goto	u2811
  4202  0011DC  EFF2  F008         	goto	u2810
  4203  0011E0                     u2811:
  4204  0011E0  EFFC  F008         	goto	l2663
  4205  0011E4                     u2810:
  4206  0011E4                     l2659:
  4207  0011E4  0E00               	movlw	0
  4208  0011E6  6E01               	movwf	?___flmul^0,c
  4209  0011E8  0E00               	movlw	0
  4210  0011EA  6E02               	movwf	(?___flmul+1)^0,c
  4211  0011EC  0E00               	movlw	0
  4212  0011EE  6E03               	movwf	(?___flmul+2)^0,c
  4213  0011F0  0E00               	movlw	0
  4214  0011F2  6E04               	movwf	(?___flmul+3)^0,c
  4215  0011F4  EF94  F00A         	goto	l817
  4216  0011F8                     l2663:
  4217  0011F8  5007               	movf	(___flmul@a+2)^0,w,c
  4218  0011FA  0201               	mulwf	___flmul@b^0,c
  4219  0011FC  CFF3 F018          	movff	prodl,___flmul@temp
  4220  001200  CFF4 F019          	movff	prodh,___flmul@temp+1
  4221  001204  5018               	movf	___flmul@temp^0,w,c
  4222  001206  6E0E               	movwf	___flmul@grs^0,c
  4223  001208  6A0F               	clrf	(___flmul@grs+1)^0,c
  4224  00120A  6A10               	clrf	(___flmul@grs+2)^0,c
  4225  00120C  6A11               	clrf	(___flmul@grs+3)^0,c
  4226  00120E  5019               	movf	(___flmul@temp+1)^0,w,c
  4227  001210  6E14               	movwf	___flmul@prod^0,c
  4228  001212  6A15               	clrf	(___flmul@prod+1)^0,c
  4229  001214  6A16               	clrf	(___flmul@prod+2)^0,c
  4230  001216  6A17               	clrf	(___flmul@prod+3)^0,c
  4231  001218  5006               	movf	(___flmul@a+1)^0,w,c
  4232  00121A  0202               	mulwf	(___flmul@b+1)^0,c
  4233  00121C  CFF3 F018          	movff	prodl,___flmul@temp
  4234  001220  CFF4 F019          	movff	prodh,___flmul@temp+1
  4235  001224  5018               	movf	___flmul@temp^0,w,c
  4236  001226  260E               	addwf	___flmul@grs^0,f,c
  4237  001228  0E00               	movlw	0
  4238  00122A  220F               	addwfc	(___flmul@grs+1)^0,f,c
  4239  00122C  2210               	addwfc	(___flmul@grs+2)^0,f,c
  4240  00122E  2211               	addwfc	(___flmul@grs+3)^0,f,c
  4241  001230  5019               	movf	(___flmul@temp+1)^0,w,c
  4242  001232  2614               	addwf	___flmul@prod^0,f,c
  4243  001234  0E00               	movlw	0
  4244  001236  2215               	addwfc	(___flmul@prod+1)^0,f,c
  4245  001238  2216               	addwfc	(___flmul@prod+2)^0,f,c
  4246  00123A  2217               	addwfc	(___flmul@prod+3)^0,f,c
  4247  00123C  5005               	movf	___flmul@a^0,w,c
  4248  00123E  0203               	mulwf	(___flmul@b+2)^0,c
  4249  001240  CFF3 F018          	movff	prodl,___flmul@temp
  4250  001244  CFF4 F019          	movff	prodh,___flmul@temp+1
  4251  001248  5018               	movf	___flmul@temp^0,w,c
  4252  00124A  260E               	addwf	___flmul@grs^0,f,c
  4253  00124C  0E00               	movlw	0
  4254  00124E  220F               	addwfc	(___flmul@grs+1)^0,f,c
  4255  001250  2210               	addwfc	(___flmul@grs+2)^0,f,c
  4256  001252  2211               	addwfc	(___flmul@grs+3)^0,f,c
  4257  001254  5019               	movf	(___flmul@temp+1)^0,w,c
  4258  001256  2614               	addwf	___flmul@prod^0,f,c
  4259  001258  0E00               	movlw	0
  4260  00125A  2215               	addwfc	(___flmul@prod+1)^0,f,c
  4261  00125C  2216               	addwfc	(___flmul@prod+2)^0,f,c
  4262  00125E  2217               	addwfc	(___flmul@prod+3)^0,f,c
  4263  001260  C010  F011         	movff	___flmul@grs+2,___flmul@grs+3
  4264  001264  C00F  F010         	movff	___flmul@grs+1,___flmul@grs+2
  4265  001268  C00E  F00F         	movff	___flmul@grs,___flmul@grs+1
  4266  00126C  6A0E               	clrf	___flmul@grs^0,c
  4267  00126E  5005               	movf	___flmul@a^0,w,c
  4268  001270  0202               	mulwf	(___flmul@b+1)^0,c
  4269  001272  CFF3 F018          	movff	prodl,___flmul@temp
  4270  001276  CFF4 F019          	movff	prodh,___flmul@temp+1
  4271  00127A  5018               	movf	___flmul@temp^0,w,c
  4272  00127C  260E               	addwf	___flmul@grs^0,f,c
  4273  00127E  5019               	movf	(___flmul@temp+1)^0,w,c
  4274  001280  220F               	addwfc	(___flmul@grs+1)^0,f,c
  4275  001282  0E00               	movlw	0
  4276  001284  2210               	addwfc	(___flmul@grs+2)^0,f,c
  4277  001286  0E00               	movlw	0
  4278  001288  2211               	addwfc	(___flmul@grs+3)^0,f,c
  4279  00128A  5006               	movf	(___flmul@a+1)^0,w,c
  4280  00128C  0201               	mulwf	___flmul@b^0,c
  4281  00128E  CFF3 F018          	movff	prodl,___flmul@temp
  4282  001292  CFF4 F019          	movff	prodh,___flmul@temp+1
  4283  001296  5018               	movf	___flmul@temp^0,w,c
  4284  001298  260E               	addwf	___flmul@grs^0,f,c
  4285  00129A  5019               	movf	(___flmul@temp+1)^0,w,c
  4286  00129C  220F               	addwfc	(___flmul@grs+1)^0,f,c
  4287  00129E  0E00               	movlw	0
  4288  0012A0  2210               	addwfc	(___flmul@grs+2)^0,f,c
  4289  0012A2  0E00               	movlw	0
  4290  0012A4  2211               	addwfc	(___flmul@grs+3)^0,f,c
  4291  0012A6  C010  F011         	movff	___flmul@grs+2,___flmul@grs+3
  4292  0012AA  C00F  F010         	movff	___flmul@grs+1,___flmul@grs+2
  4293  0012AE  C00E  F00F         	movff	___flmul@grs,___flmul@grs+1
  4294  0012B2  6A0E               	clrf	___flmul@grs^0,c
  4295  0012B4  5005               	movf	___flmul@a^0,w,c
  4296  0012B6  0201               	mulwf	___flmul@b^0,c
  4297  0012B8  CFF3 F018          	movff	prodl,___flmul@temp
  4298  0012BC  CFF4 F019          	movff	prodh,___flmul@temp+1
  4299  0012C0  5018               	movf	___flmul@temp^0,w,c
  4300  0012C2  260E               	addwf	___flmul@grs^0,f,c
  4301  0012C4  5019               	movf	(___flmul@temp+1)^0,w,c
  4302  0012C6  220F               	addwfc	(___flmul@grs+1)^0,f,c
  4303  0012C8  0E00               	movlw	0
  4304  0012CA  2210               	addwfc	(___flmul@grs+2)^0,f,c
  4305  0012CC  0E00               	movlw	0
  4306  0012CE  2211               	addwfc	(___flmul@grs+3)^0,f,c
  4307  0012D0  5007               	movf	(___flmul@a+2)^0,w,c
  4308  0012D2  0202               	mulwf	(___flmul@b+1)^0,c
  4309  0012D4  CFF3 F018          	movff	prodl,___flmul@temp
  4310  0012D8  CFF4 F019          	movff	prodh,___flmul@temp+1
  4311  0012DC  5018               	movf	___flmul@temp^0,w,c
  4312  0012DE  2614               	addwf	___flmul@prod^0,f,c
  4313  0012E0  5019               	movf	(___flmul@temp+1)^0,w,c
  4314  0012E2  2215               	addwfc	(___flmul@prod+1)^0,f,c
  4315  0012E4  0E00               	movlw	0
  4316  0012E6  2216               	addwfc	(___flmul@prod+2)^0,f,c
  4317  0012E8  0E00               	movlw	0
  4318  0012EA  2217               	addwfc	(___flmul@prod+3)^0,f,c
  4319  0012EC  5006               	movf	(___flmul@a+1)^0,w,c
  4320  0012EE  0203               	mulwf	(___flmul@b+2)^0,c
  4321  0012F0  CFF3 F018          	movff	prodl,___flmul@temp
  4322  0012F4  CFF4 F019          	movff	prodh,___flmul@temp+1
  4323  0012F8  5018               	movf	___flmul@temp^0,w,c
  4324  0012FA  2614               	addwf	___flmul@prod^0,f,c
  4325  0012FC  5019               	movf	(___flmul@temp+1)^0,w,c
  4326  0012FE  2215               	addwfc	(___flmul@prod+1)^0,f,c
  4327  001300  0E00               	movlw	0
  4328  001302  2216               	addwfc	(___flmul@prod+2)^0,f,c
  4329  001304  0E00               	movlw	0
  4330  001306  2217               	addwfc	(___flmul@prod+3)^0,f,c
  4331  001308  5007               	movf	(___flmul@a+2)^0,w,c
  4332  00130A  0203               	mulwf	(___flmul@b+2)^0,c
  4333  00130C  CFF3 F018          	movff	prodl,___flmul@temp
  4334  001310  CFF4 F019          	movff	prodh,___flmul@temp+1
  4335  001314  5018               	movf	___flmul@temp^0,w,c
  4336  001316  6E09               	movwf	??___flmul^0,c
  4337  001318  5019               	movf	(___flmul@temp+1)^0,w,c
  4338  00131A  6E0A               	movwf	(??___flmul+1)^0,c
  4339  00131C  6A0B               	clrf	(??___flmul+2)^0,c
  4340  00131E  6A0C               	clrf	(??___flmul+3)^0,c
  4341  001320  C00B  F00C         	movff	??___flmul+2,??___flmul+3
  4342  001324  C00A  F00B         	movff	??___flmul+1,??___flmul+2
  4343  001328  C009  F00A         	movff	??___flmul,??___flmul+1
  4344  00132C  6A09               	clrf	??___flmul^0,c
  4345  00132E  5009               	movf	??___flmul^0,w,c
  4346  001330  2614               	addwf	___flmul@prod^0,f,c
  4347  001332  500A               	movf	(??___flmul+1)^0,w,c
  4348  001334  2215               	addwfc	(___flmul@prod+1)^0,f,c
  4349  001336  500B               	movf	(??___flmul+2)^0,w,c
  4350  001338  2216               	addwfc	(___flmul@prod+2)^0,f,c
  4351  00133A  500C               	movf	(??___flmul+3)^0,w,c
  4352  00133C  2217               	addwfc	(___flmul@prod+3)^0,f,c
  4353  00133E  C00E  F009         	movff	___flmul@grs,??___flmul
  4354  001342  C00F  F00A         	movff	___flmul@grs+1,??___flmul+1
  4355  001346  C010  F00B         	movff	___flmul@grs+2,??___flmul+2
  4356  00134A  C011  F00C         	movff	___flmul@grs+3,??___flmul+3
  4357  00134E  0E19               	movlw	25
  4358  001350  EFAF  F009         	goto	u2820
  4359  001354                     u2825:
  4360  001354  90D8               	bcf	status,0,c
  4361  001356  320C               	rrcf	(??___flmul+3)^0,f,c
  4362  001358  320B               	rrcf	(??___flmul+2)^0,f,c
  4363  00135A  320A               	rrcf	(??___flmul+1)^0,f,c
  4364  00135C  3209               	rrcf	??___flmul^0,f,c
  4365  00135E                     u2820:
  4366  00135E  2EE8               	decfsz	wreg,f,c
  4367  001360  EFAA  F009         	goto	u2825
  4368  001364  5009               	movf	??___flmul^0,w,c
  4369  001366  2614               	addwf	___flmul@prod^0,f,c
  4370  001368  500A               	movf	(??___flmul+1)^0,w,c
  4371  00136A  2215               	addwfc	(___flmul@prod+1)^0,f,c
  4372  00136C  500B               	movf	(??___flmul+2)^0,w,c
  4373  00136E  2216               	addwfc	(___flmul@prod+2)^0,f,c
  4374  001370  500C               	movf	(??___flmul+3)^0,w,c
  4375  001372  2217               	addwfc	(___flmul@prod+3)^0,f,c
  4376  001374  C010  F011         	movff	___flmul@grs+2,___flmul@grs+3
  4377  001378  C00F  F010         	movff	___flmul@grs+1,___flmul@grs+2
  4378  00137C  C00E  F00F         	movff	___flmul@grs,___flmul@grs+1
  4379  001380  6A0E               	clrf	___flmul@grs^0,c
  4380  001382  5012               	movf	___flmul@aexp^0,w,c
  4381  001384  C013  F009         	movff	___flmul@bexp,??___flmul
  4382  001388  6A0A               	clrf	(??___flmul+1)^0,c
  4383  00138A  2609               	addwf	??___flmul^0,f,c
  4384  00138C  0E00               	movlw	0
  4385  00138E  220A               	addwfc	(??___flmul+1)^0,f,c
  4386  001390  0E82               	movlw	130
  4387  001392  2409               	addwf	??___flmul^0,w,c
  4388  001394  6E18               	movwf	___flmul@temp^0,c
  4389  001396  0EFF               	movlw	255
  4390  001398  200A               	addwfc	(??___flmul+1)^0,w,c
  4391  00139A  6E19               	movwf	(___flmul@temp+1)^0,c
  4392  00139C  EFE5  F009         	goto	l2711
  4393  0013A0                     l2705:
  4394  0013A0  90D8               	bcf	status,0,c
  4395  0013A2  3614               	rlcf	___flmul@prod^0,f,c
  4396  0013A4  3615               	rlcf	(___flmul@prod+1)^0,f,c
  4397  0013A6  3616               	rlcf	(___flmul@prod+2)^0,f,c
  4398  0013A8  3617               	rlcf	(___flmul@prod+3)^0,f,c
  4399  0013AA  AE11               	btfss	(___flmul@grs+3)^0,7,c
  4400  0013AC  EFDA  F009         	goto	u2831
  4401  0013B0  EFDC  F009         	goto	u2830
  4402  0013B4                     u2831:
  4403  0013B4  EFDD  F009         	goto	l820
  4404  0013B8                     u2830:
  4405  0013B8  8014               	bsf	___flmul@prod^0,0,c
  4406  0013BA                     l820:
  4407  0013BA  90D8               	bcf	status,0,c
  4408  0013BC  360E               	rlcf	___flmul@grs^0,f,c
  4409  0013BE  360F               	rlcf	(___flmul@grs+1)^0,f,c
  4410  0013C0  3610               	rlcf	(___flmul@grs+2)^0,f,c
  4411  0013C2  3611               	rlcf	(___flmul@grs+3)^0,f,c
  4412  0013C4  0618               	decf	___flmul@temp^0,f,c
  4413  0013C6  A0D8               	btfss	status,0,c
  4414  0013C8  0619               	decf	(___flmul@temp+1)^0,f,c
  4415  0013CA                     l2711:
  4416  0013CA  AE16               	btfss	(___flmul@prod+2)^0,7,c
  4417  0013CC  EFEA  F009         	goto	u2841
  4418  0013D0  EFEC  F009         	goto	u2840
  4419  0013D4                     u2841:
  4420  0013D4  EFD0  F009         	goto	l2705
  4421  0013D8                     u2840:
  4422  0013D8  0E00               	movlw	0
  4423  0013DA  6E12               	movwf	___flmul@aexp^0,c
  4424  0013DC  AE11               	btfss	(___flmul@grs+3)^0,7,c
  4425  0013DE  EFF3  F009         	goto	u2851
  4426  0013E2  EFF5  F009         	goto	u2850
  4427  0013E6                     u2851:
  4428  0013E6  EF19  F00A         	goto	l822
  4429  0013EA                     u2850:
  4430  0013EA  0EFF               	movlw	255
  4431  0013EC  140E               	andwf	___flmul@grs^0,w,c
  4432  0013EE  6E09               	movwf	??___flmul^0,c
  4433  0013F0  0EFF               	movlw	255
  4434  0013F2  140F               	andwf	(___flmul@grs+1)^0,w,c
  4435  0013F4  6E0A               	movwf	(??___flmul+1)^0,c
  4436  0013F6  0EFF               	movlw	255
  4437  0013F8  1410               	andwf	(___flmul@grs+2)^0,w,c
  4438  0013FA  6E0B               	movwf	(??___flmul+2)^0,c
  4439  0013FC  0E7F               	movlw	127
  4440  0013FE  1411               	andwf	(___flmul@grs+3)^0,w,c
  4441  001400  6E0C               	movwf	(??___flmul+3)^0,c
  4442  001402  5009               	movf	??___flmul^0,w,c
  4443  001404  100A               	iorwf	(??___flmul+1)^0,w,c
  4444  001406  100B               	iorwf	(??___flmul+2)^0,w,c
  4445  001408  100C               	iorwf	(??___flmul+3)^0,w,c
  4446  00140A  B4D8               	btfsc	status,2,c
  4447  00140C  EF0A  F00A         	goto	u2861
  4448  001410  EF0C  F00A         	goto	u2860
  4449  001414                     u2861:
  4450  001414  EF10  F00A         	goto	l823
  4451  001418                     u2860:
  4452  001418                     l2719:
  4453  001418  0E01               	movlw	1
  4454  00141A  6E12               	movwf	___flmul@aexp^0,c
  4455  00141C  EF19  F00A         	goto	l822
  4456  001420                     l823:
  4457  001420  A014               	btfss	___flmul@prod^0,0,c
  4458  001422  EF15  F00A         	goto	u2871
  4459  001426  EF17  F00A         	goto	u2870
  4460  00142A                     u2871:
  4461  00142A  EF19  F00A         	goto	l822
  4462  00142E                     u2870:
  4463  00142E  EF0C  F00A         	goto	l2719
  4464  001432                     l822:
  4465  001432  5012               	movf	___flmul@aexp^0,w,c
  4466  001434  B4D8               	btfsc	status,2,c
  4467  001436  EF1F  F00A         	goto	u2881
  4468  00143A  EF21  F00A         	goto	u2880
  4469  00143E                     u2881:
  4470  00143E  EF45  F00A         	goto	l2731
  4471  001442                     u2880:
  4472  001442  0E01               	movlw	1
  4473  001444  2614               	addwf	___flmul@prod^0,f,c
  4474  001446  0E00               	movlw	0
  4475  001448  2215               	addwfc	(___flmul@prod+1)^0,f,c
  4476  00144A  2216               	addwfc	(___flmul@prod+2)^0,f,c
  4477  00144C  2217               	addwfc	(___flmul@prod+3)^0,f,c
  4478  00144E  A017               	btfss	(___flmul@prod+3)^0,0,c
  4479  001450  EF2C  F00A         	goto	u2891
  4480  001454  EF2E  F00A         	goto	u2890
  4481  001458                     u2891:
  4482  001458  EF45  F00A         	goto	l2731
  4483  00145C                     u2890:
  4484  00145C  C014  F009         	movff	___flmul@prod,??___flmul
  4485  001460  C015  F00A         	movff	___flmul@prod+1,??___flmul+1
  4486  001464  C016  F00B         	movff	___flmul@prod+2,??___flmul+2
  4487  001468  C017  F00C         	movff	___flmul@prod+3,??___flmul+3
  4488  00146C  340C               	rlcf	(??___flmul+3)^0,w,c
  4489  00146E  320C               	rrcf	(??___flmul+3)^0,f,c
  4490  001470  320B               	rrcf	(??___flmul+2)^0,f,c
  4491  001472  320A               	rrcf	(??___flmul+1)^0,f,c
  4492  001474  3209               	rrcf	??___flmul^0,f,c
  4493  001476  C009  F014         	movff	??___flmul,___flmul@prod
  4494  00147A  C00A  F015         	movff	??___flmul+1,___flmul@prod+1
  4495  00147E  C00B  F016         	movff	??___flmul+2,___flmul@prod+2
  4496  001482  C00C  F017         	movff	??___flmul+3,___flmul@prod+3
  4497  001486  4A18               	infsnz	___flmul@temp^0,f,c
  4498  001488  2A19               	incf	(___flmul@temp+1)^0,f,c
  4499  00148A                     l2731:
  4500  00148A  BE19               	btfsc	(___flmul@temp+1)^0,7,c
  4501  00148C  EF50  F00A         	goto	u2901
  4502  001490  5019               	movf	(___flmul@temp+1)^0,w,c
  4503  001492  E108               	bnz	u2900
  4504  001494  2818               	incf	___flmul@temp^0,w,c
  4505  001496  A0D8               	btfss	status,0,c
  4506  001498  EF50  F00A         	goto	u2901
  4507  00149C  EF52  F00A         	goto	u2900
  4508  0014A0                     u2901:
  4509  0014A0  EF5C  F00A         	goto	l2735
  4510  0014A4                     u2900:
  4511  0014A4  0E00               	movlw	0
  4512  0014A6  6E14               	movwf	___flmul@prod^0,c
  4513  0014A8  0E00               	movlw	0
  4514  0014AA  6E15               	movwf	(___flmul@prod+1)^0,c
  4515  0014AC  0E80               	movlw	128
  4516  0014AE  6E16               	movwf	(___flmul@prod+2)^0,c
  4517  0014B0  0E7F               	movlw	127
  4518  0014B2  6E17               	movwf	(___flmul@prod+3)^0,c
  4519  0014B4  EF8A  F00A         	goto	l2747
  4520  0014B8                     l2735:
  4521  0014B8  BE19               	btfsc	(___flmul@temp+1)^0,7,c
  4522  0014BA  EF69  F00A         	goto	u2910
  4523  0014BE  5019               	movf	(___flmul@temp+1)^0,w,c
  4524  0014C0  E106               	bnz	u2911
  4525  0014C2  0418               	decf	___flmul@temp^0,w,c
  4526  0014C4  B0D8               	btfsc	status,0,c
  4527  0014C6  EF67  F00A         	goto	u2911
  4528  0014CA  EF69  F00A         	goto	u2910
  4529  0014CE                     u2911:
  4530  0014CE  EF75  F00A         	goto	l830
  4531  0014D2                     u2910:
  4532  0014D2  0E00               	movlw	0
  4533  0014D4  6E14               	movwf	___flmul@prod^0,c
  4534  0014D6  0E00               	movlw	0
  4535  0014D8  6E15               	movwf	(___flmul@prod+1)^0,c
  4536  0014DA  0E00               	movlw	0
  4537  0014DC  6E16               	movwf	(___flmul@prod+2)^0,c
  4538  0014DE  0E00               	movlw	0
  4539  0014E0  6E17               	movwf	(___flmul@prod+3)^0,c
  4540  0014E2  0E00               	movlw	0
  4541  0014E4  6E0D               	movwf	___flmul@sign^0,c
  4542  0014E6  EF8A  F00A         	goto	l2747
  4543  0014EA                     l830:
  4544  0014EA  C018  F013         	movff	___flmul@temp,___flmul@bexp
  4545  0014EE  0EFF               	movlw	255
  4546  0014F0  1614               	andwf	___flmul@prod^0,f,c
  4547  0014F2  0EFF               	movlw	255
  4548  0014F4  1615               	andwf	(___flmul@prod+1)^0,f,c
  4549  0014F6  0E7F               	movlw	127
  4550  0014F8  1616               	andwf	(___flmul@prod+2)^0,f,c
  4551  0014FA  0E00               	movlw	0
  4552  0014FC  1617               	andwf	(___flmul@prod+3)^0,f,c
  4553  0014FE  A013               	btfss	___flmul@bexp^0,0,c
  4554  001500  EF84  F00A         	goto	u2921
  4555  001504  EF86  F00A         	goto	u2920
  4556  001508                     u2921:
  4557  001508  EF87  F00A         	goto	l2745
  4558  00150C                     u2920:
  4559  00150C  8E16               	bsf	(___flmul@prod+2)^0,7,c
  4560  00150E                     l2745:
  4561  00150E  90D8               	bcf	status,0,c
  4562  001510  3013               	rrcf	___flmul@bexp^0,w,c
  4563  001512  6E17               	movwf	(___flmul@prod+3)^0,c
  4564  001514                     l2747:
  4565  001514  500D               	movf	___flmul@sign^0,w,c
  4566  001516  1217               	iorwf	(___flmul@prod+3)^0,f,c
  4567  001518  C014  F001         	movff	___flmul@prod,?___flmul
  4568  00151C  C015  F002         	movff	___flmul@prod+1,?___flmul+1
  4569  001520  C016  F003         	movff	___flmul@prod+2,?___flmul+2
  4570  001524  C017  F004         	movff	___flmul@prod+3,?___flmul+3
  4571  001528                     l817:
  4572  001528  0012               	return		;funcret
  4573  00152A                     __end_of___flmul:
  4574                           	opt callstack 0
  4575                           
  4576 ;; *************** function ___fldiv *****************
  4577 ;; Defined at:
  4578 ;;		line 11 in file "C:\Program Files (x86)\Microchip\xc8\v2.10\pic\sources\c99\common\sprcdiv.c"
  4579 ;; Parameters:    Size  Location     Type
  4580 ;;  b               4   49[COMRAM] unsigned char 
  4581 ;;  a               4   53[COMRAM] unsigned char 
  4582 ;; Auto vars:     Size  Location     Type
  4583 ;;  grs             4   68[COMRAM] unsigned long 
  4584 ;;  rem             4   61[COMRAM] unsigned long 
  4585 ;;  new_exp         2   66[COMRAM] short 
  4586 ;;  aexp            1   73[COMRAM] unsigned char 
  4587 ;;  bexp            1   72[COMRAM] unsigned char 
  4588 ;;  sign            1   65[COMRAM] unsigned char 
  4589 ;; Return value:  Size  Location     Type
  4590 ;;                  4   49[COMRAM] unsigned char 
  4591 ;; Registers used:
  4592 ;;		wreg, status,2, status,0
  4593 ;; Tracked objects:
  4594 ;;		On entry : 0/0
  4595 ;;		On exit  : 0/0
  4596 ;;		Unchanged: 0/0
  4597 ;; Data sizes:     COMRAM   BANK0   BANK1   BANK2   BANK3   BANK4   BANK5   BANK6   BANK7
  4598 ;;      Params:         8       0       0       0       0       0       0       0       0
  4599 ;;      Locals:        13       0       0       0       0       0       0       0       0
  4600 ;;      Temps:          4       0       0       0       0       0       0       0       0
  4601 ;;      Totals:        25       0       0       0       0       0       0       0       0
  4602 ;;Total ram usage:       25 bytes
  4603 ;; Hardware stack levels used:    1
  4604 ;; This function calls:
  4605 ;;		Nothing
  4606 ;; This function is called by:
  4607 ;;		_main
  4608 ;; This function uses a non-reentrant model
  4609 ;;
  4610                           
  4611                           	psect	text18
  4612  00152A                     __ptext18:
  4613                           	opt callstack 0
  4614  00152A                     ___fldiv:
  4615                           	opt callstack 30
  4616  00152A  5035               	movf	(___fldiv@b+3)^0,w,c
  4617  00152C  0B80               	andlw	128
  4618  00152E  6E42               	movwf	___fldiv@sign^0,c
  4619  001530  5035               	movf	(___fldiv@b+3)^0,w,c
  4620  001532  2435               	addwf	(___fldiv@b+3)^0,w,c
  4621  001534  6E49               	movwf	___fldiv@bexp^0,c
  4622  001536  AE34               	btfss	(___fldiv@b+2)^0,7,c
  4623  001538  EFA0  F00A         	goto	u2511
  4624  00153C  EFA2  F00A         	goto	u2510
  4625  001540                     u2511:
  4626  001540  EFA3  F00A         	goto	l2491
  4627  001544                     u2510:
  4628  001544  8049               	bsf	___fldiv@bexp^0,0,c
  4629  001546                     l2491:
  4630  001546  5049               	movf	___fldiv@bexp^0,w,c
  4631  001548  B4D8               	btfsc	status,2,c
  4632  00154A  EFA9  F00A         	goto	u2521
  4633  00154E  EFAB  F00A         	goto	u2520
  4634  001552                     u2521:
  4635  001552  EFC0  F00A         	goto	l2501
  4636  001556                     u2520:
  4637  001556  2849               	incf	___fldiv@bexp^0,w,c
  4638  001558  A4D8               	btfss	status,2,c
  4639  00155A  EFB1  F00A         	goto	u2531
  4640  00155E  EFB3  F00A         	goto	u2530
  4641  001562                     u2531:
  4642  001562  EFBB  F00A         	goto	l2497
  4643  001566                     u2530:
  4644  001566  0E00               	movlw	0
  4645  001568  6E32               	movwf	___fldiv@b^0,c
  4646  00156A  0E00               	movlw	0
  4647  00156C  6E33               	movwf	(___fldiv@b+1)^0,c
  4648  00156E  0E00               	movlw	0
  4649  001570  6E34               	movwf	(___fldiv@b+2)^0,c
  4650  001572  0E00               	movlw	0
  4651  001574  6E35               	movwf	(___fldiv@b+3)^0,c
  4652  001576                     l2497:
  4653  001576  8E34               	bsf	(___fldiv@b+2)^0,7,c
  4654  001578  0E00               	movlw	0
  4655  00157A  6E35               	movwf	(___fldiv@b+3)^0,c
  4656  00157C  EFC8  F00A         	goto	l2503
  4657  001580                     l2501:
  4658  001580  0E00               	movlw	0
  4659  001582  6E32               	movwf	___fldiv@b^0,c
  4660  001584  0E00               	movlw	0
  4661  001586  6E33               	movwf	(___fldiv@b+1)^0,c
  4662  001588  0E00               	movlw	0
  4663  00158A  6E34               	movwf	(___fldiv@b+2)^0,c
  4664  00158C  0E00               	movlw	0
  4665  00158E  6E35               	movwf	(___fldiv@b+3)^0,c
  4666  001590                     l2503:
  4667  001590  5039               	movf	(___fldiv@a+3)^0,w,c
  4668  001592  0B80               	andlw	128
  4669  001594  1A42               	xorwf	___fldiv@sign^0,f,c
  4670  001596  5039               	movf	(___fldiv@a+3)^0,w,c
  4671  001598  2439               	addwf	(___fldiv@a+3)^0,w,c
  4672  00159A  6E4A               	movwf	___fldiv@aexp^0,c
  4673  00159C  AE38               	btfss	(___fldiv@a+2)^0,7,c
  4674  00159E  EFD3  F00A         	goto	u2541
  4675  0015A2  EFD5  F00A         	goto	u2540
  4676  0015A6                     u2541:
  4677  0015A6  EFD6  F00A         	goto	l2511
  4678  0015AA                     u2540:
  4679  0015AA  804A               	bsf	___fldiv@aexp^0,0,c
  4680  0015AC                     l2511:
  4681  0015AC  504A               	movf	___fldiv@aexp^0,w,c
  4682  0015AE  B4D8               	btfsc	status,2,c
  4683  0015B0  EFDC  F00A         	goto	u2551
  4684  0015B4  EFDE  F00A         	goto	u2550
  4685  0015B8                     u2551:
  4686  0015B8  EFF3  F00A         	goto	l2521
  4687  0015BC                     u2550:
  4688  0015BC  284A               	incf	___fldiv@aexp^0,w,c
  4689  0015BE  A4D8               	btfss	status,2,c
  4690  0015C0  EFE4  F00A         	goto	u2561
  4691  0015C4  EFE6  F00A         	goto	u2560
  4692  0015C8                     u2561:
  4693  0015C8  EFEE  F00A         	goto	l2517
  4694  0015CC                     u2560:
  4695  0015CC  0E00               	movlw	0
  4696  0015CE  6E36               	movwf	___fldiv@a^0,c
  4697  0015D0  0E00               	movlw	0
  4698  0015D2  6E37               	movwf	(___fldiv@a+1)^0,c
  4699  0015D4  0E00               	movlw	0
  4700  0015D6  6E38               	movwf	(___fldiv@a+2)^0,c
  4701  0015D8  0E00               	movlw	0
  4702  0015DA  6E39               	movwf	(___fldiv@a+3)^0,c
  4703  0015DC                     l2517:
  4704  0015DC  8E38               	bsf	(___fldiv@a+2)^0,7,c
  4705  0015DE  0E00               	movlw	0
  4706  0015E0  6E39               	movwf	(___fldiv@a+3)^0,c
  4707  0015E2  EFFB  F00A         	goto	l2523
  4708  0015E6                     l2521:
  4709  0015E6  0E00               	movlw	0
  4710  0015E8  6E36               	movwf	___fldiv@a^0,c
  4711  0015EA  0E00               	movlw	0
  4712  0015EC  6E37               	movwf	(___fldiv@a+1)^0,c
  4713  0015EE  0E00               	movlw	0
  4714  0015F0  6E38               	movwf	(___fldiv@a+2)^0,c
  4715  0015F2  0E00               	movlw	0
  4716  0015F4  6E39               	movwf	(___fldiv@a+3)^0,c
  4717  0015F6                     l2523:
  4718  0015F6  5036               	movf	___fldiv@a^0,w,c
  4719  0015F8  1037               	iorwf	(___fldiv@a+1)^0,w,c
  4720  0015FA  1038               	iorwf	(___fldiv@a+2)^0,w,c
  4721  0015FC  1039               	iorwf	(___fldiv@a+3)^0,w,c
  4722  0015FE  A4D8               	btfss	status,2,c
  4723  001600  EF04  F00B         	goto	u2571
  4724  001604  EF06  F00B         	goto	u2570
  4725  001608                     u2571:
  4726  001608  EF1E  F00B         	goto	l2535
  4727  00160C                     u2570:
  4728  00160C  0E00               	movlw	0
  4729  00160E  6E32               	movwf	___fldiv@b^0,c
  4730  001610  0E00               	movlw	0
  4731  001612  6E33               	movwf	(___fldiv@b+1)^0,c
  4732  001614  0E00               	movlw	0
  4733  001616  6E34               	movwf	(___fldiv@b+2)^0,c
  4734  001618  0E00               	movlw	0
  4735  00161A  6E35               	movwf	(___fldiv@b+3)^0,c
  4736  00161C  0E80               	movlw	128
  4737  00161E  1234               	iorwf	(___fldiv@b+2)^0,f,c
  4738  001620  0E7F               	movlw	127
  4739  001622  1235               	iorwf	(___fldiv@b+3)^0,f,c
  4740  001624                     l2529:
  4741  001624  5042               	movf	___fldiv@sign^0,w,c
  4742  001626  1235               	iorwf	(___fldiv@b+3)^0,f,c
  4743  001628  C032  F032         	movff	___fldiv@b,?___fldiv
  4744  00162C  C033  F033         	movff	___fldiv@b+1,?___fldiv+1
  4745  001630  C034  F034         	movff	___fldiv@b+2,?___fldiv+2
  4746  001634  C035  F035         	movff	___fldiv@b+3,?___fldiv+3
  4747  001638  EF61  F00C         	goto	l781
  4748  00163C                     l2535:
  4749  00163C  5049               	movf	___fldiv@bexp^0,w,c
  4750  00163E  A4D8               	btfss	status,2,c
  4751  001640  EF24  F00B         	goto	u2581
  4752  001644  EF26  F00B         	goto	u2580
  4753  001648                     u2581:
  4754  001648  EF30  F00B         	goto	l2543
  4755  00164C                     u2580:
  4756  00164C  0E00               	movlw	0
  4757  00164E  6E32               	movwf	?___fldiv^0,c
  4758  001650  0E00               	movlw	0
  4759  001652  6E33               	movwf	(?___fldiv+1)^0,c
  4760  001654  0E00               	movlw	0
  4761  001656  6E34               	movwf	(?___fldiv+2)^0,c
  4762  001658  0E00               	movlw	0
  4763  00165A  6E35               	movwf	(?___fldiv+3)^0,c
  4764  00165C  EF61  F00C         	goto	l781
  4765  001660                     l2543:
  4766  001660  504A               	movf	___fldiv@aexp^0,w,c
  4767  001662  C049  F03A         	movff	___fldiv@bexp,??___fldiv
  4768  001666  6A3B               	clrf	(??___fldiv+1)^0,c
  4769  001668  5E3A               	subwf	??___fldiv^0,f,c
  4770  00166A  0E00               	movlw	0
  4771  00166C  5A3B               	subwfb	(??___fldiv+1)^0,f,c
  4772  00166E  0E7F               	movlw	127
  4773  001670  243A               	addwf	??___fldiv^0,w,c
  4774  001672  6E43               	movwf	___fldiv@new_exp^0,c
  4775  001674  0E00               	movlw	0
  4776  001676  203B               	addwfc	(??___fldiv+1)^0,w,c
  4777  001678  6E44               	movwf	(___fldiv@new_exp+1)^0,c
  4778  00167A  C032  F03E         	movff	___fldiv@b,___fldiv@rem
  4779  00167E  C033  F03F         	movff	___fldiv@b+1,___fldiv@rem+1
  4780  001682  C034  F040         	movff	___fldiv@b+2,___fldiv@rem+2
  4781  001686  C035  F041         	movff	___fldiv@b+3,___fldiv@rem+3
  4782  00168A  0E00               	movlw	0
  4783  00168C  6E32               	movwf	___fldiv@b^0,c
  4784  00168E  0E00               	movlw	0
  4785  001690  6E33               	movwf	(___fldiv@b+1)^0,c
  4786  001692  0E00               	movlw	0
  4787  001694  6E34               	movwf	(___fldiv@b+2)^0,c
  4788  001696  0E00               	movlw	0
  4789  001698  6E35               	movwf	(___fldiv@b+3)^0,c
  4790  00169A  0E00               	movlw	0
  4791  00169C  6E45               	movwf	___fldiv@grs^0,c
  4792  00169E  0E00               	movlw	0
  4793  0016A0  6E46               	movwf	(___fldiv@grs+1)^0,c
  4794  0016A2  0E00               	movlw	0
  4795  0016A4  6E47               	movwf	(___fldiv@grs+2)^0,c
  4796  0016A6  0E00               	movlw	0
  4797  0016A8  6E48               	movwf	(___fldiv@grs+3)^0,c
  4798  0016AA  0E00               	movlw	0
  4799  0016AC  6E4A               	movwf	___fldiv@aexp^0,c
  4800  0016AE  EF91  F00B         	goto	l783
  4801  0016B2                     l2553:
  4802  0016B2  504A               	movf	___fldiv@aexp^0,w,c
  4803  0016B4  B4D8               	btfsc	status,2,c
  4804  0016B6  EF5F  F00B         	goto	u2591
  4805  0016BA  EF61  F00B         	goto	u2590
  4806  0016BE                     u2591:
  4807  0016BE  EF78  F00B         	goto	l2561
  4808  0016C2                     u2590:
  4809  0016C2  90D8               	bcf	status,0,c
  4810  0016C4  363E               	rlcf	___fldiv@rem^0,f,c
  4811  0016C6  363F               	rlcf	(___fldiv@rem+1)^0,f,c
  4812  0016C8  3640               	rlcf	(___fldiv@rem+2)^0,f,c
  4813  0016CA  3641               	rlcf	(___fldiv@rem+3)^0,f,c
  4814  0016CC  90D8               	bcf	status,0,c
  4815  0016CE  3632               	rlcf	___fldiv@b^0,f,c
  4816  0016D0  3633               	rlcf	(___fldiv@b+1)^0,f,c
  4817  0016D2  3634               	rlcf	(___fldiv@b+2)^0,f,c
  4818  0016D4  3635               	rlcf	(___fldiv@b+3)^0,f,c
  4819  0016D6  AE48               	btfss	(___fldiv@grs+3)^0,7,c
  4820  0016D8  EF70  F00B         	goto	u2601
  4821  0016DC  EF72  F00B         	goto	u2600
  4822  0016E0                     u2601:
  4823  0016E0  EF73  F00B         	goto	l786
  4824  0016E4                     u2600:
  4825  0016E4  8032               	bsf	___fldiv@b^0,0,c
  4826  0016E6                     l786:
  4827  0016E6  90D8               	bcf	status,0,c
  4828  0016E8  3645               	rlcf	___fldiv@grs^0,f,c
  4829  0016EA  3646               	rlcf	(___fldiv@grs+1)^0,f,c
  4830  0016EC  3647               	rlcf	(___fldiv@grs+2)^0,f,c
  4831  0016EE  3648               	rlcf	(___fldiv@grs+3)^0,f,c
  4832  0016F0                     l2561:
  4833  0016F0  5036               	movf	___fldiv@a^0,w,c
  4834  0016F2  5C3E               	subwf	___fldiv@rem^0,w,c
  4835  0016F4  5037               	movf	(___fldiv@a+1)^0,w,c
  4836  0016F6  583F               	subwfb	(___fldiv@rem+1)^0,w,c
  4837  0016F8  5038               	movf	(___fldiv@a+2)^0,w,c
  4838  0016FA  5840               	subwfb	(___fldiv@rem+2)^0,w,c
  4839  0016FC  5039               	movf	(___fldiv@a+3)^0,w,c
  4840  0016FE  5841               	subwfb	(___fldiv@rem+3)^0,w,c
  4841  001700  A0D8               	btfss	status,0,c
  4842  001702  EF85  F00B         	goto	u2611
  4843  001706  EF87  F00B         	goto	u2610
  4844  00170A                     u2611:
  4845  00170A  EF90  F00B         	goto	l2567
  4846  00170E                     u2610:
  4847  00170E  8C48               	bsf	(___fldiv@grs+3)^0,6,c
  4848  001710  5036               	movf	___fldiv@a^0,w,c
  4849  001712  5E3E               	subwf	___fldiv@rem^0,f,c
  4850  001714  5037               	movf	(___fldiv@a+1)^0,w,c
  4851  001716  5A3F               	subwfb	(___fldiv@rem+1)^0,f,c
  4852  001718  5038               	movf	(___fldiv@a+2)^0,w,c
  4853  00171A  5A40               	subwfb	(___fldiv@rem+2)^0,f,c
  4854  00171C  5039               	movf	(___fldiv@a+3)^0,w,c
  4855  00171E  5A41               	subwfb	(___fldiv@rem+3)^0,f,c
  4856  001720                     l2567:
  4857  001720  2A4A               	incf	___fldiv@aexp^0,f,c
  4858  001722                     l783:
  4859  001722  0E19               	movlw	25
  4860  001724  644A               	cpfsgt	___fldiv@aexp^0,c
  4861  001726  EF97  F00B         	goto	u2621
  4862  00172A  EF99  F00B         	goto	u2620
  4863  00172E                     u2621:
  4864  00172E  EF59  F00B         	goto	l2553
  4865  001732                     u2620:
  4866  001732  503E               	movf	___fldiv@rem^0,w,c
  4867  001734  103F               	iorwf	(___fldiv@rem+1)^0,w,c
  4868  001736  1040               	iorwf	(___fldiv@rem+2)^0,w,c
  4869  001738  1041               	iorwf	(___fldiv@rem+3)^0,w,c
  4870  00173A  B4D8               	btfsc	status,2,c
  4871  00173C  EFA2  F00B         	goto	u2631
  4872  001740  EFA4  F00B         	goto	u2630
  4873  001744                     u2631:
  4874  001744  EFBC  F00B         	goto	l2579
  4875  001748                     u2630:
  4876  001748  8045               	bsf	___fldiv@grs^0,0,c
  4877  00174A  EFBC  F00B         	goto	l2579
  4878  00174E                     l2573:
  4879  00174E  90D8               	bcf	status,0,c
  4880  001750  3632               	rlcf	___fldiv@b^0,f,c
  4881  001752  3633               	rlcf	(___fldiv@b+1)^0,f,c
  4882  001754  3634               	rlcf	(___fldiv@b+2)^0,f,c
  4883  001756  3635               	rlcf	(___fldiv@b+3)^0,f,c
  4884  001758  AE48               	btfss	(___fldiv@grs+3)^0,7,c
  4885  00175A  EFB1  F00B         	goto	u2641
  4886  00175E  EFB3  F00B         	goto	u2640
  4887  001762                     u2641:
  4888  001762  EFB4  F00B         	goto	l792
  4889  001766                     u2640:
  4890  001766  8032               	bsf	___fldiv@b^0,0,c
  4891  001768                     l792:
  4892  001768  90D8               	bcf	status,0,c
  4893  00176A  3645               	rlcf	___fldiv@grs^0,f,c
  4894  00176C  3646               	rlcf	(___fldiv@grs+1)^0,f,c
  4895  00176E  3647               	rlcf	(___fldiv@grs+2)^0,f,c
  4896  001770  3648               	rlcf	(___fldiv@grs+3)^0,f,c
  4897  001772  0643               	decf	___fldiv@new_exp^0,f,c
  4898  001774  A0D8               	btfss	status,0,c
  4899  001776  0644               	decf	(___fldiv@new_exp+1)^0,f,c
  4900  001778                     l2579:
  4901  001778  AE34               	btfss	(___fldiv@b+2)^0,7,c
  4902  00177A  EFC1  F00B         	goto	u2651
  4903  00177E  EFC3  F00B         	goto	u2650
  4904  001782                     u2651:
  4905  001782  EFA7  F00B         	goto	l2573
  4906  001786                     u2650:
  4907  001786  0E00               	movlw	0
  4908  001788  6E4A               	movwf	___fldiv@aexp^0,c
  4909  00178A  AE48               	btfss	(___fldiv@grs+3)^0,7,c
  4910  00178C  EFCA  F00B         	goto	u2661
  4911  001790  EFCC  F00B         	goto	u2660
  4912  001794                     u2661:
  4913  001794  EFF0  F00B         	goto	l794
  4914  001798                     u2660:
  4915  001798  0EFF               	movlw	255
  4916  00179A  1445               	andwf	___fldiv@grs^0,w,c
  4917  00179C  6E3A               	movwf	??___fldiv^0,c
  4918  00179E  0EFF               	movlw	255
  4919  0017A0  1446               	andwf	(___fldiv@grs+1)^0,w,c
  4920  0017A2  6E3B               	movwf	(??___fldiv+1)^0,c
  4921  0017A4  0EFF               	movlw	255
  4922  0017A6  1447               	andwf	(___fldiv@grs+2)^0,w,c
  4923  0017A8  6E3C               	movwf	(??___fldiv+2)^0,c
  4924  0017AA  0E7F               	movlw	127
  4925  0017AC  1448               	andwf	(___fldiv@grs+3)^0,w,c
  4926  0017AE  6E3D               	movwf	(??___fldiv+3)^0,c
  4927  0017B0  503A               	movf	??___fldiv^0,w,c
  4928  0017B2  103B               	iorwf	(??___fldiv+1)^0,w,c
  4929  0017B4  103C               	iorwf	(??___fldiv+2)^0,w,c
  4930  0017B6  103D               	iorwf	(??___fldiv+3)^0,w,c
  4931  0017B8  B4D8               	btfsc	status,2,c
  4932  0017BA  EFE1  F00B         	goto	u2671
  4933  0017BE  EFE3  F00B         	goto	u2670
  4934  0017C2                     u2671:
  4935  0017C2  EFE7  F00B         	goto	l795
  4936  0017C6                     u2670:
  4937  0017C6                     l2587:
  4938  0017C6  0E01               	movlw	1
  4939  0017C8  6E4A               	movwf	___fldiv@aexp^0,c
  4940  0017CA  EFF0  F00B         	goto	l794
  4941  0017CE                     l795:
  4942  0017CE  A032               	btfss	___fldiv@b^0,0,c
  4943  0017D0  EFEC  F00B         	goto	u2681
  4944  0017D4  EFEE  F00B         	goto	u2680
  4945  0017D8                     u2681:
  4946  0017D8  EFF0  F00B         	goto	l794
  4947  0017DC                     u2680:
  4948  0017DC  EFE3  F00B         	goto	l2587
  4949  0017E0                     l794:
  4950  0017E0  504A               	movf	___fldiv@aexp^0,w,c
  4951  0017E2  B4D8               	btfsc	status,2,c
  4952  0017E4  EFF6  F00B         	goto	u2691
  4953  0017E8  EFF8  F00B         	goto	u2690
  4954  0017EC                     u2691:
  4955  0017EC  EF1C  F00C         	goto	l2599
  4956  0017F0                     u2690:
  4957  0017F0  0E01               	movlw	1
  4958  0017F2  2632               	addwf	___fldiv@b^0,f,c
  4959  0017F4  0E00               	movlw	0
  4960  0017F6  2233               	addwfc	(___fldiv@b+1)^0,f,c
  4961  0017F8  2234               	addwfc	(___fldiv@b+2)^0,f,c
  4962  0017FA  2235               	addwfc	(___fldiv@b+3)^0,f,c
  4963  0017FC  A035               	btfss	(___fldiv@b+3)^0,0,c
  4964  0017FE  EF03  F00C         	goto	u2701
  4965  001802  EF05  F00C         	goto	u2700
  4966  001806                     u2701:
  4967  001806  EF1C  F00C         	goto	l2599
  4968  00180A                     u2700:
  4969  00180A  C032  F03A         	movff	___fldiv@b,??___fldiv
  4970  00180E  C033  F03B         	movff	___fldiv@b+1,??___fldiv+1
  4971  001812  C034  F03C         	movff	___fldiv@b+2,??___fldiv+2
  4972  001816  C035  F03D         	movff	___fldiv@b+3,??___fldiv+3
  4973  00181A  343D               	rlcf	(??___fldiv+3)^0,w,c
  4974  00181C  323D               	rrcf	(??___fldiv+3)^0,f,c
  4975  00181E  323C               	rrcf	(??___fldiv+2)^0,f,c
  4976  001820  323B               	rrcf	(??___fldiv+1)^0,f,c
  4977  001822  323A               	rrcf	??___fldiv^0,f,c
  4978  001824  C03A  F032         	movff	??___fldiv,___fldiv@b
  4979  001828  C03B  F033         	movff	??___fldiv+1,___fldiv@b+1
  4980  00182C  C03C  F034         	movff	??___fldiv+2,___fldiv@b+2
  4981  001830  C03D  F035         	movff	??___fldiv+3,___fldiv@b+3
  4982  001834  4A43               	infsnz	___fldiv@new_exp^0,f,c
  4983  001836  2A44               	incf	(___fldiv@new_exp+1)^0,f,c
  4984  001838                     l2599:
  4985  001838  BE44               	btfsc	(___fldiv@new_exp+1)^0,7,c
  4986  00183A  EF27  F00C         	goto	u2711
  4987  00183E  5044               	movf	(___fldiv@new_exp+1)^0,w,c
  4988  001840  E108               	bnz	u2710
  4989  001842  2843               	incf	___fldiv@new_exp^0,w,c
  4990  001844  A0D8               	btfss	status,0,c
  4991  001846  EF27  F00C         	goto	u2711
  4992  00184A  EF29  F00C         	goto	u2710
  4993  00184E                     u2711:
  4994  00184E  EF34  F00C         	goto	l2603
  4995  001852                     u2710:
  4996  001852  0E00               	movlw	0
  4997  001854  6E44               	movwf	(___fldiv@new_exp+1)^0,c
  4998  001856  6843               	setf	___fldiv@new_exp^0,c
  4999  001858  0E00               	movlw	0
  5000  00185A  6E32               	movwf	___fldiv@b^0,c
  5001  00185C  0E00               	movlw	0
  5002  00185E  6E33               	movwf	(___fldiv@b+1)^0,c
  5003  001860  0E00               	movlw	0
  5004  001862  6E34               	movwf	(___fldiv@b+2)^0,c
  5005  001864  0E00               	movlw	0
  5006  001866  6E35               	movwf	(___fldiv@b+3)^0,c
  5007  001868                     l2603:
  5008  001868  BE44               	btfsc	(___fldiv@new_exp+1)^0,7,c
  5009  00186A  EF41  F00C         	goto	u2720
  5010  00186E  5044               	movf	(___fldiv@new_exp+1)^0,w,c
  5011  001870  E106               	bnz	u2721
  5012  001872  0443               	decf	___fldiv@new_exp^0,w,c
  5013  001874  B0D8               	btfsc	status,0,c
  5014  001876  EF3F  F00C         	goto	u2721
  5015  00187A  EF41  F00C         	goto	u2720
  5016  00187E                     u2721:
  5017  00187E  EF4F  F00C         	goto	l2607
  5018  001882                     u2720:
  5019  001882  0E00               	movlw	0
  5020  001884  6E44               	movwf	(___fldiv@new_exp+1)^0,c
  5021  001886  0E00               	movlw	0
  5022  001888  6E43               	movwf	___fldiv@new_exp^0,c
  5023  00188A  0E00               	movlw	0
  5024  00188C  6E32               	movwf	___fldiv@b^0,c
  5025  00188E  0E00               	movlw	0
  5026  001890  6E33               	movwf	(___fldiv@b+1)^0,c
  5027  001892  0E00               	movlw	0
  5028  001894  6E34               	movwf	(___fldiv@b+2)^0,c
  5029  001896  0E00               	movlw	0
  5030  001898  6E35               	movwf	(___fldiv@b+3)^0,c
  5031  00189A  0E00               	movlw	0
  5032  00189C  6E42               	movwf	___fldiv@sign^0,c
  5033  00189E                     l2607:
  5034  00189E  C043  F049         	movff	___fldiv@new_exp,___fldiv@bexp
  5035  0018A2  A049               	btfss	___fldiv@bexp^0,0,c
  5036  0018A4  EF56  F00C         	goto	u2731
  5037  0018A8  EF58  F00C         	goto	u2730
  5038  0018AC                     u2731:
  5039  0018AC  EF5B  F00C         	goto	l2613
  5040  0018B0                     u2730:
  5041  0018B0  8E34               	bsf	(___fldiv@b+2)^0,7,c
  5042  0018B2  EF5C  F00C         	goto	l2615
  5043  0018B6                     l2613:
  5044  0018B6  9E34               	bcf	(___fldiv@b+2)^0,7,c
  5045  0018B8                     l2615:
  5046  0018B8  90D8               	bcf	status,0,c
  5047  0018BA  3049               	rrcf	___fldiv@bexp^0,w,c
  5048  0018BC  6E35               	movwf	(___fldiv@b+3)^0,c
  5049  0018BE  EF12  F00B         	goto	l2529
  5050  0018C2                     l781:
  5051  0018C2  0012               	return		;funcret
  5052  0018C4                     __end_of___fldiv:
  5053                           	opt callstack 0
  5054                           
  5055 ;; *************** function _PWM *****************
  5056 ;; Defined at:
  5057 ;;		line 131 in file "main_PID_BUCK.c"
  5058 ;; Parameters:    Size  Location     Type
  5059 ;;  output          2    0[COMRAM] int 
  5060 ;; Auto vars:     Size  Location     Type
  5061 ;;		None
  5062 ;; Return value:  Size  Location     Type
  5063 ;;                  1    wreg      void 
  5064 ;; Registers used:
  5065 ;;		wreg, status,2, status,0
  5066 ;; Tracked objects:
  5067 ;;		On entry : 0/0
  5068 ;;		On exit  : 0/0
  5069 ;;		Unchanged: 0/0
  5070 ;; Data sizes:     COMRAM   BANK0   BANK1   BANK2   BANK3   BANK4   BANK5   BANK6   BANK7
  5071 ;;      Params:         2       0       0       0       0       0       0       0       0
  5072 ;;      Locals:         0       0       0       0       0       0       0       0       0
  5073 ;;      Temps:          2       0       0       0       0       0       0       0       0
  5074 ;;      Totals:         4       0       0       0       0       0       0       0       0
  5075 ;;Total ram usage:        4 bytes
  5076 ;; Hardware stack levels used:    1
  5077 ;; This function calls:
  5078 ;;		Nothing
  5079 ;; This function is called by:
  5080 ;;		_main
  5081 ;; This function uses a non-reentrant model
  5082 ;;
  5083                           
  5084                           	psect	text19
  5085  00259A                     __ptext19:
  5086                           	opt callstack 0
  5087  00259A                     _PWM:
  5088                           	opt callstack 30
  5089  00259A                     
  5090                           ;main_PID_BUCK.c: 135:     TRISC2 = 0;
  5091  00259A  9494               	bcf	3988,2,c	;volatile
  5092  00259C                     
  5093                           ;main_PID_BUCK.c: 136:     PR2 = 29;
  5094  00259C  0E1D               	movlw	29
  5095  00259E  6ECB               	movwf	203,c	;volatile
  5096  0025A0                     
  5097                           ;main_PID_BUCK.c: 137:     CCPR1L = (output>>2);
  5098  0025A0  C001  F003         	movff	PWM@output,??_PWM
  5099  0025A4  C002  F004         	movff	PWM@output+1,??_PWM+1
  5100  0025A8  3404               	rlcf	(??_PWM+1)^0,w,c
  5101  0025AA  3204               	rrcf	(??_PWM+1)^0,f,c
  5102  0025AC  3203               	rrcf	??_PWM^0,f,c
  5103  0025AE  3404               	rlcf	(??_PWM+1)^0,w,c
  5104  0025B0  3204               	rrcf	(??_PWM+1)^0,f,c
  5105  0025B2  3203               	rrcf	??_PWM^0,f,c
  5106  0025B4  5003               	movf	??_PWM^0,w,c
  5107  0025B6  6EBE               	movwf	190,c	;volatile
  5108  0025B8                     
  5109                           ;main_PID_BUCK.c: 138:     output=((output<<4)&0x0030)|0B00001100;
  5110  0025B8  C001  F003         	movff	PWM@output,??_PWM
  5111  0025BC  C002  F004         	movff	PWM@output+1,??_PWM+1
  5112  0025C0  3A03               	swapf	??_PWM^0,f,c
  5113  0025C2  3A04               	swapf	(??_PWM+1)^0,f,c
  5114  0025C4  0EF0               	movlw	240
  5115  0025C6  1604               	andwf	(??_PWM+1)^0,f,c
  5116  0025C8  5003               	movf	??_PWM^0,w,c
  5117  0025CA  0B0F               	andlw	15
  5118  0025CC  1204               	iorwf	(??_PWM+1)^0,f,c
  5119  0025CE  0EF0               	movlw	240
  5120  0025D0  1603               	andwf	??_PWM^0,f,c
  5121  0025D2  0E30               	movlw	48
  5122  0025D4  1603               	andwf	??_PWM^0,f,c
  5123  0025D6  0E00               	movlw	0
  5124  0025D8  1604               	andwf	(??_PWM+1)^0,f,c
  5125  0025DA  0E0C               	movlw	12
  5126  0025DC  1003               	iorwf	??_PWM^0,w,c
  5127  0025DE  6E01               	movwf	PWM@output^0,c
  5128  0025E0  5004               	movf	(??_PWM+1)^0,w,c
  5129  0025E2  6E02               	movwf	(PWM@output+1)^0,c
  5130  0025E4                     
  5131                           ;main_PID_BUCK.c: 139:     CCP1CON = output;
  5132  0025E4  C001  FFBD         	movff	PWM@output,4029	;volatile
  5133                           
  5134                           ;main_PID_BUCK.c: 140:     T2CON = 0B00000111;
  5135  0025E8  0E07               	movlw	7
  5136  0025EA  6ECA               	movwf	202,c	;volatile
  5137                           
  5138                           ;main_PID_BUCK.c: 141:     TMR2 = 0;
  5139  0025EC  0E00               	movlw	0
  5140  0025EE  6ECC               	movwf	204,c	;volatile
  5141  0025F0                     
  5142                           ;main_PID_BUCK.c: 142:     TMR2ON = 1;
  5143  0025F0  84CA               	bsf	4042,2,c	;volatile
  5144  0025F2  0012               	return		;funcret
  5145  0025F4                     __end_of_PWM:
  5146                           	opt callstack 0
  5147                           
  5148 ;; *************** function _LCD_String_xy *****************
  5149 ;; Defined at:
  5150 ;;		line 262 in file "main_PID_BUCK.c"
  5151 ;; Parameters:    Size  Location     Type
  5152 ;;  row             1    wreg     unsigned char 
  5153 ;;  pos             1    7[COMRAM] unsigned char 
  5154 ;;  msg             2    8[COMRAM] PTR const unsigned char 
  5155 ;;		 -> main@str(20), 
  5156 ;; Auto vars:     Size  Location     Type
  5157 ;;  row             1   10[COMRAM] unsigned char 
  5158 ;;  location        1   11[COMRAM] unsigned char 
  5159 ;; Return value:  Size  Location     Type
  5160 ;;                  1    wreg      void 
  5161 ;; Registers used:
  5162 ;;		wreg, fsr2l, fsr2h, status,2, status,0, cstack
  5163 ;; Tracked objects:
  5164 ;;		On entry : 0/0
  5165 ;;		On exit  : 0/0
  5166 ;;		Unchanged: 0/0
  5167 ;; Data sizes:     COMRAM   BANK0   BANK1   BANK2   BANK3   BANK4   BANK5   BANK6   BANK7
  5168 ;;      Params:         3       0       0       0       0       0       0       0       0
  5169 ;;      Locals:         2       0       0       0       0       0       0       0       0
  5170 ;;      Temps:          0       0       0       0       0       0       0       0       0
  5171 ;;      Totals:         5       0       0       0       0       0       0       0       0
  5172 ;;Total ram usage:        5 bytes
  5173 ;; Hardware stack levels used:    1
  5174 ;; Hardware stack levels required when called:    3
  5175 ;; This function calls:
  5176 ;;		_LCD_Command
  5177 ;;		_LCD_String
  5178 ;; This function is called by:
  5179 ;;		_main
  5180 ;; This function uses a non-reentrant model
  5181 ;;
  5182                           
  5183                           	psect	text20
  5184  002758                     __ptext20:
  5185                           	opt callstack 0
  5186  002758                     _LCD_String_xy:
  5187                           	opt callstack 27
  5188                           
  5189                           ;incstack = 0
  5190                           ;LCD_String_xy@row stored from wreg
  5191  002758  6E0B               	movwf	LCD_String_xy@row^0,c
  5192  00275A                     
  5193                           ;main_PID_BUCK.c: 265:     if(row<=1)
  5194  00275A  0E02               	movlw	2
  5195  00275C  600B               	cpfslt	LCD_String_xy@row^0,c
  5196  00275E  EFB3  F013         	goto	u2501
  5197  002762  EFB5  F013         	goto	u2500
  5198  002766                     u2501:
  5199  002766  EFBE  F013         	goto	l2479
  5200  00276A                     u2500:
  5201  00276A                     
  5202                           ;main_PID_BUCK.c: 266:     {;main_PID_BUCK.c: 267:         location=(0x80) | ((pos) & 0x
      +                          0f);
  5203  00276A  5008               	movf	LCD_String_xy@pos^0,w,c
  5204  00276C  0B0F               	andlw	15
  5205  00276E  0980               	iorlw	128
  5206  002770  6E0C               	movwf	LCD_String_xy@location^0,c
  5207  002772                     
  5208                           ;main_PID_BUCK.c: 268:         LCD_Command(location);
  5209  002772  500C               	movf	LCD_String_xy@location^0,w,c
  5210  002774  EC24  F014         	call	_LCD_Command
  5211                           
  5212                           ;main_PID_BUCK.c: 269:     }
  5213  002778  EFC5  F013         	goto	l2483
  5214  00277C                     l2479:
  5215                           
  5216                           ;main_PID_BUCK.c: 271:     {;main_PID_BUCK.c: 272:         location=(0xC0) | ((pos) & 0x
      +                          0f);
  5217  00277C  5008               	movf	LCD_String_xy@pos^0,w,c
  5218  00277E  0B0F               	andlw	15
  5219  002780  09C0               	iorlw	192
  5220  002782  6E0C               	movwf	LCD_String_xy@location^0,c
  5221  002784                     
  5222                           ;main_PID_BUCK.c: 273:         LCD_Command(location);
  5223  002784  500C               	movf	LCD_String_xy@location^0,w,c
  5224  002786  EC24  F014         	call	_LCD_Command
  5225  00278A                     l2483:
  5226                           
  5227                           ;main_PID_BUCK.c: 275:     LCD_String(msg);
  5228  00278A  C009  F006         	movff	LCD_String_xy@msg,LCD_String@msg
  5229  00278E  C00A  F007         	movff	LCD_String_xy@msg+1,LCD_String@msg+1
  5230  002792  ECE7  F013         	call	_LCD_String	;wreg free
  5231  002796  0012               	return		;funcret
  5232  002798                     __end_of_LCD_String_xy:
  5233                           	opt callstack 0
  5234                           
  5235 ;; *************** function _LCD_String *****************
  5236 ;; Defined at:
  5237 ;;		line 252 in file "main_PID_BUCK.c"
  5238 ;; Parameters:    Size  Location     Type
  5239 ;;  msg             2    5[COMRAM] PTR const unsigned char 
  5240 ;;		 -> main@str(20), 
  5241 ;; Auto vars:     Size  Location     Type
  5242 ;;		None
  5243 ;; Return value:  Size  Location     Type
  5244 ;;                  1    wreg      void 
  5245 ;; Registers used:
  5246 ;;		wreg, fsr2l, fsr2h, status,2, status,0, cstack
  5247 ;; Tracked objects:
  5248 ;;		On entry : 0/0
  5249 ;;		On exit  : 0/0
  5250 ;;		Unchanged: 0/0
  5251 ;; Data sizes:     COMRAM   BANK0   BANK1   BANK2   BANK3   BANK4   BANK5   BANK6   BANK7
  5252 ;;      Params:         2       0       0       0       0       0       0       0       0
  5253 ;;      Locals:         0       0       0       0       0       0       0       0       0
  5254 ;;      Temps:          0       0       0       0       0       0       0       0       0
  5255 ;;      Totals:         2       0       0       0       0       0       0       0       0
  5256 ;;Total ram usage:        2 bytes
  5257 ;; Hardware stack levels used:    1
  5258 ;; Hardware stack levels required when called:    2
  5259 ;; This function calls:
  5260 ;;		_LCD_Char
  5261 ;; This function is called by:
  5262 ;;		_LCD_String_xy
  5263 ;; This function uses a non-reentrant model
  5264 ;;
  5265                           
  5266                           	psect	text21
  5267  0027CE                     __ptext21:
  5268                           	opt callstack 0
  5269  0027CE                     _LCD_String:
  5270                           	opt callstack 27
  5271  0027CE                     
  5272                           ;main_PID_BUCK.c: 252: void LCD_String(const char *msg);main_PID_BUCK.c: 253: {;main_PID
      +                          _BUCK.c: 254:  while((*msg)!=0)
  5273  0027CE  EFF2  F013         	goto	l2213
  5274  0027D2                     l2209:
  5275                           
  5276                           ;main_PID_BUCK.c: 255:  {;main_PID_BUCK.c: 256:    LCD_Char(*msg);
  5277  0027D2  C006  FFD9         	movff	LCD_String@msg,fsr2l
  5278  0027D6  C007  FFDA         	movff	LCD_String@msg+1,fsr2h
  5279  0027DA  50DF               	movf	indf2,w,c
  5280  0027DC  EC16  F014         	call	_LCD_Char
  5281  0027E0                     
  5282                           ;main_PID_BUCK.c: 257:    msg++;
  5283  0027E0  4A06               	infsnz	LCD_String@msg^0,f,c
  5284  0027E2  2A07               	incf	(LCD_String@msg+1)^0,f,c
  5285  0027E4                     l2213:
  5286                           
  5287                           ;main_PID_BUCK.c: 254:  while((*msg)!=0)
  5288  0027E4  C006  FFD9         	movff	LCD_String@msg,fsr2l
  5289  0027E8  C007  FFDA         	movff	LCD_String@msg+1,fsr2h
  5290  0027EC  50DF               	movf	indf2,w,c
  5291  0027EE  A4D8               	btfss	status,2,c
  5292  0027F0  EFFC  F013         	goto	u2021
  5293  0027F4  EFFE  F013         	goto	u2020
  5294  0027F8                     u2021:
  5295  0027F8  EFE9  F013         	goto	l2209
  5296  0027FC                     u2020:
  5297  0027FC  0012               	return		;funcret
  5298  0027FE                     __end_of_LCD_String:
  5299                           	opt callstack 0
  5300                           
  5301 ;; *************** function _LCD_Char *****************
  5302 ;; Defined at:
  5303 ;;		line 241 in file "main_PID_BUCK.c"
  5304 ;; Parameters:    Size  Location     Type
  5305 ;;  dat             1    wreg     unsigned char 
  5306 ;; Auto vars:     Size  Location     Type
  5307 ;;  dat             1    4[COMRAM] unsigned char 
  5308 ;; Return value:  Size  Location     Type
  5309 ;;                  1    wreg      void 
  5310 ;; Registers used:
  5311 ;;		wreg, status,2, status,0, cstack
  5312 ;; Tracked objects:
  5313 ;;		On entry : 0/0
  5314 ;;		On exit  : 0/0
  5315 ;;		Unchanged: 0/0
  5316 ;; Data sizes:     COMRAM   BANK0   BANK1   BANK2   BANK3   BANK4   BANK5   BANK6   BANK7
  5317 ;;      Params:         0       0       0       0       0       0       0       0       0
  5318 ;;      Locals:         1       0       0       0       0       0       0       0       0
  5319 ;;      Temps:          0       0       0       0       0       0       0       0       0
  5320 ;;      Totals:         1       0       0       0       0       0       0       0       0
  5321 ;;Total ram usage:        1 bytes
  5322 ;; Hardware stack levels used:    1
  5323 ;; Hardware stack levels required when called:    1
  5324 ;; This function calls:
  5325 ;;		_MSdelay
  5326 ;; This function is called by:
  5327 ;;		_LCD_String
  5328 ;; This function uses a non-reentrant model
  5329 ;;
  5330                           
  5331                           	psect	text22
  5332  00282C                     __ptext22:
  5333                           	opt callstack 0
  5334  00282C                     _LCD_Char:
  5335                           	opt callstack 27
  5336                           
  5337                           ;incstack = 0
  5338                           ;LCD_Char@dat stored from wreg
  5339  00282C  6E05               	movwf	LCD_Char@dat^0,c
  5340  00282E                     
  5341                           ;main_PID_BUCK.c: 241: void LCD_Char(char dat);main_PID_BUCK.c: 242: {;main_PID_BUCK.c: 
      +                          243:  LATB= dat;
  5342  00282E  C005  FF8A         	movff	LCD_Char@dat,3978	;volatile
  5343  002832                     
  5344                           ;main_PID_BUCK.c: 244:  LATD0 = 1;
  5345  002832  808C               	bsf	3980,0,c	;volatile
  5346  002834                     
  5347                           ;main_PID_BUCK.c: 245:  LATD1=1;
  5348  002834  828C               	bsf	3980,1,c	;volatile
  5349  002836                     
  5350                           ;main_PID_BUCK.c: 246:  __nop();
  5351  002836  F000               	nop	
  5352  002838                     
  5353                           ;main_PID_BUCK.c: 247:  LATD1=0;
  5354  002838  928C               	bcf	3980,1,c	;volatile
  5355  00283A                     
  5356                           ;main_PID_BUCK.c: 248:  MSdelay(1);
  5357  00283A  0E00               	movlw	0
  5358  00283C  6E02               	movwf	(MSdelay@val+1)^0,c
  5359  00283E  0E01               	movlw	1
  5360  002840  6E01               	movwf	MSdelay@val^0,c
  5361  002842  EC23  F013         	call	_MSdelay	;wreg free
  5362  002846  0012               	return		;funcret
  5363  002848                     __end_of_LCD_Char:
  5364                           	opt callstack 0
  5365                           
  5366 ;; *************** function _LCD_Init *****************
  5367 ;; Defined at:
  5368 ;;		line 215 in file "main_PID_BUCK.c"
  5369 ;; Parameters:    Size  Location     Type
  5370 ;;		None
  5371 ;; Auto vars:     Size  Location     Type
  5372 ;;		None
  5373 ;; Return value:  Size  Location     Type
  5374 ;;                  1    wreg      void 
  5375 ;; Registers used:
  5376 ;;		wreg, status,2, status,0, cstack
  5377 ;; Tracked objects:
  5378 ;;		On entry : 0/0
  5379 ;;		On exit  : 0/0
  5380 ;;		Unchanged: 0/0
  5381 ;; Data sizes:     COMRAM   BANK0   BANK1   BANK2   BANK3   BANK4   BANK5   BANK6   BANK7
  5382 ;;      Params:         0       0       0       0       0       0       0       0       0
  5383 ;;      Locals:         0       0       0       0       0       0       0       0       0
  5384 ;;      Temps:          0       0       0       0       0       0       0       0       0
  5385 ;;      Totals:         0       0       0       0       0       0       0       0       0
  5386 ;;Total ram usage:        0 bytes
  5387 ;; Hardware stack levels used:    1
  5388 ;; Hardware stack levels required when called:    2
  5389 ;; This function calls:
  5390 ;;		_LCD_Command
  5391 ;;		_MSdelay
  5392 ;; This function is called by:
  5393 ;;		_main
  5394 ;; This function uses a non-reentrant model
  5395 ;;
  5396                           
  5397                           	psect	text23
  5398  0027FE                     __ptext23:
  5399                           	opt callstack 0
  5400  0027FE                     _LCD_Init:
  5401                           	opt callstack 28
  5402  0027FE                     
  5403                           ;main_PID_BUCK.c: 217:     MSdelay(15);
  5404  0027FE  0E00               	movlw	0
  5405  002800  6E02               	movwf	(MSdelay@val+1)^0,c
  5406  002802  0E0F               	movlw	15
  5407  002804  6E01               	movwf	MSdelay@val^0,c
  5408  002806  EC23  F013         	call	_MSdelay	;wreg free
  5409  00280A                     
  5410                           ;main_PID_BUCK.c: 218:     TRISB = 0x00;
  5411  00280A  0E00               	movlw	0
  5412  00280C  6E93               	movwf	147,c	;volatile
  5413  00280E                     
  5414                           ;main_PID_BUCK.c: 219:     TRISD = 0x00;
  5415  00280E  0E00               	movlw	0
  5416  002810  6E95               	movwf	149,c	;volatile
  5417                           
  5418                           ;main_PID_BUCK.c: 220:     LCD_Command(0x38);
  5419  002812  0E38               	movlw	56
  5420  002814  EC24  F014         	call	_LCD_Command
  5421                           
  5422                           ;main_PID_BUCK.c: 221:     LCD_Command(0x01);
  5423  002818  0E01               	movlw	1
  5424  00281A  EC24  F014         	call	_LCD_Command
  5425                           
  5426                           ;main_PID_BUCK.c: 222:     LCD_Command(0x0c);
  5427  00281E  0E0C               	movlw	12
  5428  002820  EC24  F014         	call	_LCD_Command
  5429                           
  5430                           ;main_PID_BUCK.c: 223:     LCD_Command(0x06);
  5431  002824  0E06               	movlw	6
  5432  002826  EC24  F014         	call	_LCD_Command
  5433  00282A  0012               	return		;funcret
  5434  00282C                     __end_of_LCD_Init:
  5435                           	opt callstack 0
  5436                           
  5437 ;; *************** function _LCD_Command *****************
  5438 ;; Defined at:
  5439 ;;		line 231 in file "main_PID_BUCK.c"
  5440 ;; Parameters:    Size  Location     Type
  5441 ;;  cmd             1    wreg     unsigned char 
  5442 ;; Auto vars:     Size  Location     Type
  5443 ;;  cmd             1    4[COMRAM] unsigned char 
  5444 ;; Return value:  Size  Location     Type
  5445 ;;                  1    wreg      void 
  5446 ;; Registers used:
  5447 ;;		wreg, status,2, status,0, cstack
  5448 ;; Tracked objects:
  5449 ;;		On entry : 0/0
  5450 ;;		On exit  : 0/0
  5451 ;;		Unchanged: 0/0
  5452 ;; Data sizes:     COMRAM   BANK0   BANK1   BANK2   BANK3   BANK4   BANK5   BANK6   BANK7
  5453 ;;      Params:         0       0       0       0       0       0       0       0       0
  5454 ;;      Locals:         1       0       0       0       0       0       0       0       0
  5455 ;;      Temps:          0       0       0       0       0       0       0       0       0
  5456 ;;      Totals:         1       0       0       0       0       0       0       0       0
  5457 ;;Total ram usage:        1 bytes
  5458 ;; Hardware stack levels used:    1
  5459 ;; Hardware stack levels required when called:    1
  5460 ;; This function calls:
  5461 ;;		_MSdelay
  5462 ;; This function is called by:
  5463 ;;		_LCD_Init
  5464 ;;		_LCD_String_xy
  5465 ;;		_LCD_Clear
  5466 ;; This function uses a non-reentrant model
  5467 ;;
  5468                           
  5469                           	psect	text24
  5470  002848                     __ptext24:
  5471                           	opt callstack 0
  5472  002848                     _LCD_Command:
  5473                           	opt callstack 28
  5474                           
  5475                           ;incstack = 0
  5476                           ;LCD_Command@cmd stored from wreg
  5477  002848  6E05               	movwf	LCD_Command@cmd^0,c
  5478  00284A                     
  5479                           ;main_PID_BUCK.c: 231: void LCD_Command(char cmd );main_PID_BUCK.c: 232: {;main_PID_BUCK
      +                          .c: 233:  LATB= cmd;
  5480  00284A  C005  FF8A         	movff	LCD_Command@cmd,3978	;volatile
  5481  00284E                     
  5482                           ;main_PID_BUCK.c: 234:  LATD0 = 0;
  5483  00284E  908C               	bcf	3980,0,c	;volatile
  5484  002850                     
  5485                           ;main_PID_BUCK.c: 235:  LATD1 = 1;
  5486  002850  828C               	bsf	3980,1,c	;volatile
  5487  002852                     
  5488                           ;main_PID_BUCK.c: 236:  __nop();
  5489  002852  F000               	nop	
  5490  002854                     
  5491                           ;main_PID_BUCK.c: 237:  LATD1 = 0;
  5492  002854  928C               	bcf	3980,1,c	;volatile
  5493  002856                     
  5494                           ;main_PID_BUCK.c: 238:  MSdelay(3);
  5495  002856  0E00               	movlw	0
  5496  002858  6E02               	movwf	(MSdelay@val+1)^0,c
  5497  00285A  0E03               	movlw	3
  5498  00285C  6E01               	movwf	MSdelay@val^0,c
  5499  00285E  EC23  F013         	call	_MSdelay	;wreg free
  5500  002862  0012               	return		;funcret
  5501  002864                     __end_of_LCD_Command:
  5502                           	opt callstack 0
  5503                           
  5504 ;; *************** function _MSdelay *****************
  5505 ;; Defined at:
  5506 ;;		line 279 in file "main_PID_BUCK.c"
  5507 ;; Parameters:    Size  Location     Type
  5508 ;;  val             2    0[COMRAM] unsigned int 
  5509 ;; Auto vars:     Size  Location     Type
  5510 ;;  i               2    2[COMRAM] unsigned int 
  5511 ;; Return value:  Size  Location     Type
  5512 ;;                  1    wreg      void 
  5513 ;; Registers used:
  5514 ;;		wreg, status,2, status,0
  5515 ;; Tracked objects:
  5516 ;;		On entry : 0/0
  5517 ;;		On exit  : 0/0
  5518 ;;		Unchanged: 0/0
  5519 ;; Data sizes:     COMRAM   BANK0   BANK1   BANK2   BANK3   BANK4   BANK5   BANK6   BANK7
  5520 ;;      Params:         2       0       0       0       0       0       0       0       0
  5521 ;;      Locals:         2       0       0       0       0       0       0       0       0
  5522 ;;      Temps:          0       0       0       0       0       0       0       0       0
  5523 ;;      Totals:         4       0       0       0       0       0       0       0       0
  5524 ;;Total ram usage:        4 bytes
  5525 ;; Hardware stack levels used:    1
  5526 ;; This function calls:
  5527 ;;		Nothing
  5528 ;; This function is called by:
  5529 ;;		_LCD_Init
  5530 ;;		_LCD_Command
  5531 ;;		_LCD_Char
  5532 ;; This function uses a non-reentrant model
  5533 ;;
  5534                           
  5535                           	psect	text25
  5536  002646                     __ptext25:
  5537                           	opt callstack 0
  5538  002646                     _MSdelay:
  5539                           	opt callstack 27
  5540  002646                     
  5541                           ;main_PID_BUCK.c: 279: void MSdelay(unsigned int val);main_PID_BUCK.c: 280: {;main_PID_B
      +                          UCK.c: 281:     unsigned int i;;main_PID_BUCK.c: 282:     T0CON = 0x82;
  5542  002646  0E82               	movlw	130
  5543  002648  6ED5               	movwf	213,c	;volatile
  5544                           
  5545                           ;main_PID_BUCK.c: 283:     for(i=0;i<val;i++)
  5546  00264A  0E00               	movlw	0
  5547  00264C  6E04               	movwf	(MSdelay@i+1)^0,c
  5548  00264E  0E00               	movlw	0
  5549  002650  6E03               	movwf	MSdelay@i^0,c
  5550  002652  EF39  F013         	goto	l2075
  5551  002656                     l2071:
  5552                           
  5553                           ;main_PID_BUCK.c: 284:     {;main_PID_BUCK.c: 285:         TMR0 = 65535 - (48000000/(4*8
      +                          *1000));
  5554  002656  0EFA               	movlw	250
  5555  002658  6ED7               	movwf	215,c	;volatile
  5556  00265A  0E23               	movlw	35
  5557  00265C  6ED6               	movwf	214,c	;volatile
  5558  00265E                     l120:
  5559  00265E  A4F2               	btfss	4082,2,c	;volatile
  5560  002660  EF34  F013         	goto	u1811
  5561  002664  EF36  F013         	goto	u1810
  5562  002668                     u1811:
  5563  002668  EF2F  F013         	goto	l120
  5564  00266C                     u1810:
  5565  00266C                     
  5566                           ;main_PID_BUCK.c: 287:         TMR0IF=0;
  5567  00266C  94F2               	bcf	4082,2,c	;volatile
  5568  00266E                     
  5569                           ;main_PID_BUCK.c: 288:     }
  5570  00266E  4A03               	infsnz	MSdelay@i^0,f,c
  5571  002670  2A04               	incf	(MSdelay@i+1)^0,f,c
  5572  002672                     l2075:
  5573  002672  5001               	movf	MSdelay@val^0,w,c
  5574  002674  5C03               	subwf	MSdelay@i^0,w,c
  5575  002676  5002               	movf	(MSdelay@val+1)^0,w,c
  5576  002678  5804               	subwfb	(MSdelay@i+1)^0,w,c
  5577  00267A  A0D8               	btfss	status,0,c
  5578  00267C  EF42  F013         	goto	u1821
  5579  002680  EF44  F013         	goto	u1820
  5580  002684                     u1821:
  5581  002684  EF2B  F013         	goto	l2071
  5582  002688                     u1820:
  5583  002688                     
  5584                           ;main_PID_BUCK.c: 289:     T0CON = 0x00;
  5585  002688  0E00               	movlw	0
  5586  00268A  6ED5               	movwf	213,c	;volatile
  5587  00268C  0012               	return		;funcret
  5588  00268E                     __end_of_MSdelay:
  5589                           	opt callstack 0
  5590                           
  5591 ;; *************** function _ADC_Read *****************
  5592 ;; Defined at:
  5593 ;;		line 115 in file "main_PID_BUCK.c"
  5594 ;; Parameters:    Size  Location     Type
  5595 ;;  channel         2    0[COMRAM] int 
  5596 ;; Auto vars:     Size  Location     Type
  5597 ;;  digital         2    6[COMRAM] int 
  5598 ;; Return value:  Size  Location     Type
  5599 ;;                  2    0[COMRAM] int 
  5600 ;; Registers used:
  5601 ;;		wreg, status,2, status,0
  5602 ;; Tracked objects:
  5603 ;;		On entry : 0/0
  5604 ;;		On exit  : 0/0
  5605 ;;		Unchanged: 0/0
  5606 ;; Data sizes:     COMRAM   BANK0   BANK1   BANK2   BANK3   BANK4   BANK5   BANK6   BANK7
  5607 ;;      Params:         2       0       0       0       0       0       0       0       0
  5608 ;;      Locals:         2       0       0       0       0       0       0       0       0
  5609 ;;      Temps:          4       0       0       0       0       0       0       0       0
  5610 ;;      Totals:         8       0       0       0       0       0       0       0       0
  5611 ;;Total ram usage:        8 bytes
  5612 ;; Hardware stack levels used:    1
  5613 ;; This function calls:
  5614 ;;		Nothing
  5615 ;; This function is called by:
  5616 ;;		_main
  5617 ;; This function uses a non-reentrant model
  5618 ;;
  5619                           
  5620                           	psect	text26
  5621  002490                     __ptext26:
  5622                           	opt callstack 0
  5623  002490                     _ADC_Read:
  5624                           	opt callstack 30
  5625  002490                     
  5626                           ;main_PID_BUCK.c: 115: int ADC_Read(int channel);main_PID_BUCK.c: 116: {;main_PID_BUCK.c
      +                          : 117:     int digital;;main_PID_BUCK.c: 120:     ADCON0 =(ADCON0 & 0b11000011)|((channe
      +                          l<<2) & 0b00111100);
  5627  002490  C001  F003         	movff	ADC_Read@channel,??_ADC_Read
  5628  002494  90D8               	bcf	status,0,c
  5629  002496  3603               	rlcf	??_ADC_Read^0,f,c
  5630  002498  90D8               	bcf	status,0,c
  5631  00249A  3603               	rlcf	??_ADC_Read^0,f,c
  5632  00249C  0E3C               	movlw	60
  5633  00249E  1603               	andwf	??_ADC_Read^0,f,c
  5634  0024A0  50C2               	movf	194,w,c	;volatile
  5635  0024A2  0BC3               	andlw	195
  5636  0024A4  1003               	iorwf	??_ADC_Read^0,w,c
  5637  0024A6  6EC2               	movwf	194,c	;volatile
  5638  0024A8                     
  5639                           ;main_PID_BUCK.c: 121:     ADCON2bits.ACQT = 0b111;
  5640  0024A8  0E38               	movlw	56
  5641  0024AA  12C0               	iorwf	192,f,c	;volatile
  5642  0024AC                     
  5643                           ;main_PID_BUCK.c: 122:     ADCON2bits.ADCS = 0b110;
  5644  0024AC  50C0               	movf	192,w,c	;volatile
  5645  0024AE  0BF8               	andlw	-8
  5646  0024B0  0906               	iorlw	6
  5647  0024B2  6EC0               	movwf	192,c	;volatile
  5648                           
  5649                           ;main_PID_BUCK.c: 123:     ADCON0 |= ((1<<ADON)|(1<<GO));
  5650  0024B4  B2C2               	btfsc	4034,1,c	;volatile
  5651  0024B6  EF5F  F012         	goto	u2431
  5652  0024BA  EF63  F012         	goto	u2430
  5653  0024BE                     u2431:
  5654  0024BE  6A03               	clrf	??_ADC_Read^0,c
  5655  0024C0  2A03               	incf	??_ADC_Read^0,f,c
  5656  0024C2  EF64  F012         	goto	u2448
  5657  0024C6                     u2430:
  5658  0024C6  6A03               	clrf	??_ADC_Read^0,c
  5659  0024C8                     u2448:
  5660  0024C8  0E01               	movlw	1
  5661  0024CA  6E04               	movwf	(??_ADC_Read+1)^0,c
  5662  0024CC  2A03               	incf	??_ADC_Read^0,f,c
  5663  0024CE  EF6B  F012         	goto	u2454
  5664  0024D2                     u2455:
  5665  0024D2  90D8               	bcf	status,0,c
  5666  0024D4  3604               	rlcf	(??_ADC_Read+1)^0,f,c
  5667  0024D6                     u2454:
  5668  0024D6  2E03               	decfsz	??_ADC_Read^0,f,c
  5669  0024D8  EF69  F012         	goto	u2455
  5670  0024DC  B0C2               	btfsc	4034,0,c	;volatile
  5671  0024DE  EF73  F012         	goto	u2461
  5672  0024E2  EF77  F012         	goto	u2460
  5673  0024E6                     u2461:
  5674  0024E6  6A05               	clrf	(??_ADC_Read+2)^0,c
  5675  0024E8  2A05               	incf	(??_ADC_Read+2)^0,f,c
  5676  0024EA  EF78  F012         	goto	u2478
  5677  0024EE                     u2460:
  5678  0024EE  6A05               	clrf	(??_ADC_Read+2)^0,c
  5679  0024F0                     u2478:
  5680  0024F0  0E01               	movlw	1
  5681  0024F2  6E06               	movwf	(??_ADC_Read+3)^0,c
  5682  0024F4  2A05               	incf	(??_ADC_Read+2)^0,f,c
  5683  0024F6  EF7F  F012         	goto	u2484
  5684  0024FA                     u2485:
  5685  0024FA  90D8               	bcf	status,0,c
  5686  0024FC  3606               	rlcf	(??_ADC_Read+3)^0,f,c
  5687  0024FE                     u2484:
  5688  0024FE  2E05               	decfsz	(??_ADC_Read+2)^0,f,c
  5689  002500  EF7D  F012         	goto	u2485
  5690  002504  5006               	movf	(??_ADC_Read+3)^0,w,c
  5691  002506  1004               	iorwf	(??_ADC_Read+1)^0,w,c
  5692  002508  12C2               	iorwf	194,f,c	;volatile
  5693  00250A                     l77:
  5694  00250A  B2C2               	btfsc	194,1,c	;volatile
  5695  00250C  EF8A  F012         	goto	u2491
  5696  002510  EF8C  F012         	goto	u2490
  5697  002514                     u2491:
  5698  002514  EF85  F012         	goto	l77
  5699  002518                     u2490:
  5700  002518                     
  5701                           ;main_PID_BUCK.c: 128:     digital = (ADRESH*256) | (ADRESL);
  5702  002518  50C3               	movf	195,w,c	;volatile
  5703  00251A  CFC4 F003          	movff	4036,??_ADC_Read	;volatile
  5704  00251E  6A04               	clrf	(??_ADC_Read+1)^0,c
  5705  002520  C003  F004         	movff	??_ADC_Read,??_ADC_Read+1
  5706  002524  6A03               	clrf	??_ADC_Read^0,c
  5707  002526  1003               	iorwf	??_ADC_Read^0,w,c
  5708  002528  6E07               	movwf	ADC_Read@digital^0,c
  5709  00252A  5004               	movf	(??_ADC_Read+1)^0,w,c
  5710  00252C  6E08               	movwf	(ADC_Read@digital+1)^0,c
  5711  00252E                     
  5712                           ;main_PID_BUCK.c: 129:     return(digital);
  5713  00252E  C007  F001         	movff	ADC_Read@digital,?_ADC_Read
  5714  002532  C008  F002         	movff	ADC_Read@digital+1,?_ADC_Read+1
  5715  002536  0012               	return		;funcret
  5716  002538                     __end_of_ADC_Read:
  5717                           	opt callstack 0
  5718                           
  5719 ;; *************** function _ADC_Init *****************
  5720 ;; Defined at:
  5721 ;;		line 107 in file "main_PID_BUCK.c"
  5722 ;; Parameters:    Size  Location     Type
  5723 ;;		None
  5724 ;; Auto vars:     Size  Location     Type
  5725 ;;		None
  5726 ;; Return value:  Size  Location     Type
  5727 ;;                  1    wreg      void 
  5728 ;; Registers used:
  5729 ;;		wreg, status,2
  5730 ;; Tracked objects:
  5731 ;;		On entry : 0/0
  5732 ;;		On exit  : 0/0
  5733 ;;		Unchanged: 0/0
  5734 ;; Data sizes:     COMRAM   BANK0   BANK1   BANK2   BANK3   BANK4   BANK5   BANK6   BANK7
  5735 ;;      Params:         0       0       0       0       0       0       0       0       0
  5736 ;;      Locals:         0       0       0       0       0       0       0       0       0
  5737 ;;      Temps:          0       0       0       0       0       0       0       0       0
  5738 ;;      Totals:         0       0       0       0       0       0       0       0       0
  5739 ;;Total ram usage:        0 bytes
  5740 ;; Hardware stack levels used:    1
  5741 ;; This function calls:
  5742 ;;		Nothing
  5743 ;; This function is called by:
  5744 ;;		_main
  5745 ;; This function uses a non-reentrant model
  5746 ;;
  5747                           
  5748                           	psect	text27
  5749  00287E                     __ptext27:
  5750                           	opt callstack 0
  5751  00287E                     _ADC_Init:
  5752                           	opt callstack 30
  5753  00287E                     
  5754                           ;main_PID_BUCK.c: 109:     TRISA = 0xFF;
  5755  00287E  6892               	setf	146,c	;volatile
  5756  002880                     
  5757                           ;main_PID_BUCK.c: 110:     ADCON1 = 0x0E;
  5758  002880  0E0E               	movlw	14
  5759  002882  6EC1               	movwf	193,c	;volatile
  5760                           
  5761                           ;main_PID_BUCK.c: 111:     ADCON2 = 0x92;
  5762  002884  0E92               	movlw	146
  5763  002886  6EC0               	movwf	192,c	;volatile
  5764                           
  5765                           ;main_PID_BUCK.c: 112:     ADRESH=0;
  5766  002888  0E00               	movlw	0
  5767  00288A  6EC4               	movwf	196,c	;volatile
  5768                           
  5769                           ;main_PID_BUCK.c: 113:     ADRESL=0;
  5770  00288C  0E00               	movlw	0
  5771  00288E  6EC3               	movwf	195,c	;volatile
  5772  002890  0012               	return		;funcret
  5773  002892                     __end_of_ADC_Init:
  5774                           	opt callstack 0
  5775                           
  5776                           	psect	rparam
  5777  0000                     tosu	equ	0xFFF
  5778                           tosh	equ	0xFFE
  5779                           tosl	equ	0xFFD
  5780                           stkptr	equ	0xFFC
  5781                           pclatu	equ	0xFFB
  5782                           pclath	equ	0xFFA
  5783                           pcl	equ	0xFF9
  5784                           tblptru	equ	0xFF8
  5785                           tblptrh	equ	0xFF7
  5786                           tblptrl	equ	0xFF6
  5787                           tablat	equ	0xFF5
  5788                           prodh	equ	0xFF4
  5789                           prodl	equ	0xFF3
  5790                           indf0	equ	0xFEF
  5791                           postinc0	equ	0xFEE
  5792                           postdec0	equ	0xFED
  5793                           preinc0	equ	0xFEC
  5794                           plusw0	equ	0xFEB
  5795                           fsr0h	equ	0xFEA
  5796                           fsr0l	equ	0xFE9
  5797                           wreg	equ	0xFE8
  5798                           indf1	equ	0xFE7
  5799                           postinc1	equ	0xFE6
  5800                           postdec1	equ	0xFE5
  5801                           preinc1	equ	0xFE4
  5802                           plusw1	equ	0xFE3
  5803                           fsr1h	equ	0xFE2
  5804                           fsr1l	equ	0xFE1
  5805                           bsr	equ	0xFE0
  5806                           indf2	equ	0xFDF
  5807                           postinc2	equ	0xFDE
  5808                           postdec2	equ	0xFDD
  5809                           preinc2	equ	0xFDC
  5810                           plusw2	equ	0xFDB
  5811                           fsr2h	equ	0xFDA
  5812                           fsr2l	equ	0xFD9
  5813                           status	equ	0xFD8


Data Sizes:
    Strings     3
    Constant    0
    Data        0
    BSS         40
    Persistent  0
    Stack       0

Auto Spaces:
    Space          Size  Autos    Used
    COMRAM           95     95      95
    BANK0           160     94     134
    BANK1           256      0       0
    BANK2           256      0       0
    BANK3           256      0       0
    BANK4           256      0       0
    BANK5           256      0       0
    BANK6           256      0       0
    BANK7           256      0       0

Pointer List with Targets:

    strlen@s	PTR const unsigned char  size(2) Largest target is 32
		 -> dbuf(BANK0[32]), 

    strlen@a	PTR const unsigned char  size(2) Largest target is 32
		 -> dbuf(BANK0[32]), 

    sprintf@fmt	PTR const unsigned char  size(2) Largest target is 3
		 -> STR_6(CODE[3]), STR_5(CODE[3]), STR_4(CODE[3]), STR_3(CODE[3]), 
		 -> STR_2(CODE[3]), STR_1(CODE[3]), 

    sprintf@s	PTR unsigned char  size(2) Largest target is 20
		 -> main@str(BANK0[20]), 

    sprintf@ap	PTR void [1] size(2) Largest target is 2
		 -> ?_sprintf(COMRAM[2]), 

    f.buffer	PTR unsigned char  size(2) Largest target is 20
		 -> main@str(BANK0[20]), 

    fputs@s	PTR const unsigned char  size(2) Largest target is 32
		 -> dbuf(BANK0[32]), 

    fputs@fp	PTR struct _IO_FILE size(2) Largest target is 7
		 -> sprintf@f(BANK0[6]), 

    S749_IO_FILE$buffer	PTR unsigned char  size(2) Largest target is 20
		 -> main@str(BANK0[20]), 

    fputc@fp.buffer	PTR unsigned char  size(2) Largest target is 20
		 -> main@str(BANK0[20]), 

    fputc@fp	PTR struct _IO_FILE size(2) Largest target is 7
		 -> sprintf@f(BANK0[6]), 

    vfprintf@ap	PTR PTR void  size(2) Largest target is 2
		 -> sprintf@ap(BANK0[2]), 

    vfprintf@fp	PTR struct _IO_FILE size(2) Largest target is 7
		 -> sprintf@f(BANK0[6]), 

    vfprintf@fmt	PTR const unsigned char  size(2) Largest target is 3
		 -> STR_6(CODE[3]), STR_5(CODE[3]), STR_4(CODE[3]), STR_3(CODE[3]), 
		 -> STR_2(CODE[3]), STR_1(CODE[3]), 

    vfprintf@cfmt	PTR unsigned char  size(2) Largest target is 3
		 -> STR_6(CODE[3]), STR_5(CODE[3]), STR_4(CODE[3]), STR_3(CODE[3]), 
		 -> STR_2(CODE[3]), STR_1(CODE[3]), 

    vfpfcnvrt@fp	PTR struct _IO_FILE size(2) Largest target is 7
		 -> sprintf@f(BANK0[6]), 

    vfpfcnvrt@ap	PTR PTR void  size(2) Largest target is 2
		 -> sprintf@ap(BANK0[2]), 

    vfpfcnvrt@fmt	PTR PTR unsigned char  size(2) Largest target is 2
		 -> vfprintf@cfmt(COMRAM[2]), 

    dtoa@fp	PTR struct _IO_FILE size(2) Largest target is 7
		 -> sprintf@f(BANK0[6]), 

    pad@fp	PTR struct _IO_FILE size(2) Largest target is 7
		 -> sprintf@f(BANK0[6]), 

    pad@buf	PTR unsigned char  size(2) Largest target is 32
		 -> dbuf(BANK0[32]), 

    LCD_String_xy@msg	PTR const unsigned char  size(2) Largest target is 20
		 -> main@str(BANK0[20]), 

    LCD_String@msg	PTR const unsigned char  size(2) Largest target is 20
		 -> main@str(BANK0[20]), 


Critical Paths under _main in COMRAM

    _main->_sprintf
    _sprintf->_vfprintf
    _vfprintf->_vfpfcnvrt
    _vfpfcnvrt->_dtoa
    _dtoa->_pad
    _pad->_fputs
    _fputs->_fputc
    _abs->___aomod
    ___fltol->___fladd
    ___flsub->___fladd
    ___fladd->___flmul
    ___fldiv->___flsub
    _LCD_String_xy->_LCD_String
    _LCD_String->_LCD_Char
    _LCD_Char->_MSdelay
    _LCD_Init->_LCD_Command
    _LCD_Command->_MSdelay

Critical Paths under _main in BANK0

    _main->_sprintf

Critical Paths under _main in BANK1

    None.

Critical Paths under _main in BANK2

    None.

Critical Paths under _main in BANK3

    None.

Critical Paths under _main in BANK4

    None.

Critical Paths under _main in BANK5

    None.

Critical Paths under _main in BANK6

    None.

Critical Paths under _main in BANK7

    None.

Call Graph Tables:

 ---------------------------------------------------------------------------------
 (Depth) Function   	        Calls       Base Space   Used Autos Params    Refs
 ---------------------------------------------------------------------------------
 (0) _main                                                86    86      0   21133
                                             93 COMRAM     2     2      0
                                             10 BANK0     84    84      0
                           _ADC_Init
                           _ADC_Read
                           _LCD_Init
                      _LCD_String_xy
                                _PWM
                            ___fladd
                            ___fldiv
                            ___flmul
                            ___flsub
                            ___fltol
                           ___xxtofl
                            _sprintf
 ---------------------------------------------------------------------------------
 (1) _sprintf                                             16    10      6    7216
                                             87 COMRAM     6     0      6
                                              0 BANK0     10    10      0
                           _vfprintf
 ---------------------------------------------------------------------------------
 (2) _vfprintf                                             8     2      6    6105
                                             79 COMRAM     8     2      6
                          _vfpfcnvrt
 ---------------------------------------------------------------------------------
 (3) _vfpfcnvrt                                           42    36      6    5751
                                             63 COMRAM    16    10      6
                               _dtoa
                              _fputc
 ---------------------------------------------------------------------------------
 (4) _dtoa                                                36    26     10    4358
                                             27 COMRAM    36    26     10
                            ___aodiv
                            ___aomod
                                _abs
                                _pad
 ---------------------------------------------------------------------------------
 (5) _pad                                                 11     5      6    2709
                                             16 COMRAM    11     5      6
                              _fputc
                              _fputs
                             _strlen
 ---------------------------------------------------------------------------------
 (6) _strlen                                               4     2      2     166
                                              0 COMRAM     4     2      2
 ---------------------------------------------------------------------------------
 (6) _fputs                                                7     3      4    1235
                                              9 COMRAM     7     3      4
                              _fputc
 ---------------------------------------------------------------------------------
 (4) _fputc                                                9     5      4     834
                                              0 COMRAM     9     5      4
                              _putch
 ---------------------------------------------------------------------------------
 (5) _putch                                                1     1      0       0
 ---------------------------------------------------------------------------------
 (5) _abs                                                  4     2      2     142
                                             18 COMRAM     4     2      2
                            ___aomod (ARG)
 ---------------------------------------------------------------------------------
 (5) ___aomod                                             18     2     16     448
                                              0 COMRAM    18     2     16
 ---------------------------------------------------------------------------------
 (5) ___aodiv                                             26    10     16     452
                                              0 COMRAM    26    10     16
 ---------------------------------------------------------------------------------
 (1) ___xxtofl                                            14    10      4     398
                                              0 COMRAM    14    10      4
 ---------------------------------------------------------------------------------
 (1) ___fltol                                             10     6      4     609
                                             41 COMRAM    10     6      4
                            ___fladd (ARG)
 ---------------------------------------------------------------------------------
 (1) ___flsub                                              8     0      8    3041
                                             41 COMRAM     8     0      8
                            ___fladd
                            ___flmul (ARG)
 ---------------------------------------------------------------------------------
 (2) ___fladd                                             16     8      8    2718
                                             25 COMRAM    16     8      8
                            ___flmul (ARG)
 ---------------------------------------------------------------------------------
 (1) ___flmul                                             25    17      8    2200
                                              0 COMRAM    25    17      8
 ---------------------------------------------------------------------------------
 (1) ___fldiv                                             25    17      8    1399
                                             49 COMRAM    25    17      8
                            ___flmul (ARG)
                            ___flsub (ARG)
 ---------------------------------------------------------------------------------
 (1) _PWM                                                  4     2      2     143
                                              0 COMRAM     4     2      2
 ---------------------------------------------------------------------------------
 (1) _LCD_String_xy                                        5     2      3    1760
                                              7 COMRAM     5     2      3
                        _LCD_Command
                         _LCD_String
 ---------------------------------------------------------------------------------
 (2) _LCD_String                                           2     0      2     417
                                              5 COMRAM     2     0      2
                           _LCD_Char
 ---------------------------------------------------------------------------------
 (3) _LCD_Char                                             1     1      0     296
                                              4 COMRAM     1     1      0
                            _MSdelay
 ---------------------------------------------------------------------------------
 (1) _LCD_Init                                             0     0      0     570
                        _LCD_Command
                            _MSdelay
 ---------------------------------------------------------------------------------
 (2) _LCD_Command                                          1     1      0     296
                                              4 COMRAM     1     1      0
                            _MSdelay
 ---------------------------------------------------------------------------------
 (4) _MSdelay                                              4     2      2     274
                                              0 COMRAM     4     2      2
 ---------------------------------------------------------------------------------
 (1) _ADC_Read                                             8     6      2     121
                                              0 COMRAM     8     6      2
 ---------------------------------------------------------------------------------
 (1) _ADC_Init                                             0     0      0       0
 ---------------------------------------------------------------------------------
 Estimated maximum stack depth 6
 ---------------------------------------------------------------------------------

 Call Graph Graphs:

 _main (ROOT)
   _ADC_Init
   _ADC_Read
   _LCD_Init
     _LCD_Command
       _MSdelay
     _MSdelay
   _LCD_String_xy
     _LCD_Command
       _MSdelay
     _LCD_String
       _LCD_Char
         _MSdelay
   _PWM
   ___fladd
     ___flmul (ARG)
   ___fldiv
     ___flmul (ARG)
     ___flsub (ARG)
       ___fladd
         ___flmul (ARG)
       ___flmul (ARG)
   ___flmul
   ___flsub
     ___fladd
       ___flmul (ARG)
     ___flmul (ARG)
   ___fltol
     ___fladd (ARG)
       ___flmul (ARG)
   ___xxtofl
   _sprintf
     _vfprintf
       _vfpfcnvrt
         _dtoa
           ___aodiv
           ___aomod
           _abs
             ___aomod (ARG)
           _pad
             _fputc
               _putch
             _fputs
               _fputc
                 _putch
             _strlen
         _fputc
           _putch

 Address spaces:
Name               Size   Autos  Total    Cost      Usage
BIGRAM             7FF      0       0      21        0.0%
EEDATA             100      0       0       0        0.0%
BITBANK7           100      0       0      18        0.0%
BANK7              100      0       0      19        0.0%
BITBANK6           100      0       0      16        0.0%
BANK6              100      0       0      17        0.0%
BITBANK5           100      0       0      14        0.0%
BANK5              100      0       0      15        0.0%
BITBANK4           100      0       0      12        0.0%
BANK4              100      0       0      13        0.0%
BITBANK3           100      0       0      10        0.0%
BANK3              100      0       0      11        0.0%
BITBANK2           100      0       0       8        0.0%
BANK2              100      0       0       9        0.0%
BITBANK1           100      0       0       6        0.0%
BANK1              100      0       0       7        0.0%
BITBANK0            A0      0       0       4        0.0%
BANK0               A0     5E      86       5       83.8%
BITCOMRAM           5F      0       0       0        0.0%
COMRAM              5F     5F      5F       1      100.0%
BITSFR               0      0       0     200        0.0%
SFR                  0      0       0     200        0.0%
STACK                0      0       0       2        0.0%
NULL                 0      0       0       0        0.0%
ABS                  0      0      E5      20        0.0%
DATA                 0      0      E5       3        0.0%
CODE                 0      0       0       0        0.0%


Microchip Technology PIC18 Macro Assembler V2.10 build 88905656 
Symbol Table                                                                                   Sat Jul 04 00:34:20 2020

           ___fldiv@aexp 004A             ___fldiv@bexp 0049             ___fldiv@sign 0042  
            main@Control 00B2             ?_LCD_Command 0001                       l80 2536  
                     l74 2890                       l83 25F2                       l77 250A  
                     l95 282A                       _GO 007E11            main@PIntegral 009C  
            __CFG_BOR$ON 000000              main@Error_0 00A2              __CFG_BORV$3 000000  
            ?_LCD_String 0006             __CFG_CP0$OFF 000000             __CFG_CP1$OFF 000000  
           __CFG_CP2$OFF 000000             __CFG_CP3$OFF 000000              __CFG_LVP$ON 000000  
            __CFG_WDT$ON 000000                      l101 2862                      l110 27FC  
                    l120 265E                      l104 2846                      l122 266C  
                    l115 2796                      l124 268C                      l151 2410  
                    l313 2094                      l154 2452                      l162 1964  
                    l156 248E                      l164 196C                      l326 21F8  
                    l182 1BA4                      l195 2590                      l196 2598  
                    l189 1D58                      l820 13BA                      l813 11C4  
                    l830 14EA                      l822 1432                      l823 1420  
                    l727 09F4                      l744 0B0E                      l736 0CC4  
                    l728 09E2                      l496 22FE                      l904 2644  
                    l817 1528                      l753 0BDE                      l729 09A8  
                    l913 27CC                      l754 0BCC                      l907 2892  
                    l781 18C2                      l861 1E48                      l854 1DB0  
                    l783 1722                      l792 1768                      l769 26D2  
                    l857 1F0C                      l794 17E0                      l786 16E6  
                    l874 274E                      l795 17CE                      l868 1EA4  
                    l877 2756                      l889 23C8                      l897 2716  
           __CFG_CPB$OFF 000000                      _PR2 000FCB             __CFG_CPD$OFF 000000  
                    _PWM 259A                      _abs 2718                      _pad 23CA  
                    wreg 000FE8             main@Integral 00B4             ___flmul@aexp 0012  
           ___flmul@bexp 0013             ___flmul@sign 000D             ___flmul@temp 0018  
           ___flmul@prod 0014              LCD_Char@dat 0005                     ?_PWM 0001  
           ___fltol@exp1 0033                     l2001 1F72                     l2011 1FBC  
                   l2003 1F76                     ?_abs 0013                     l2021 202C  
                   l2013 1FCA                     l2005 1F82                     l2101 19A2  
                   l2023 203E                     l2015 1FDC                     l2007 1FA0  
                   l2111 1A3E                     l2103 19AA                     l2201 2852  
                   l2017 200A                     l2009 1FA8                     l2025 2044  
                   l2041 20CC                     l2033 2096                     l2121 1B0E  
                   l2105 19B0                     l2113 1AA2                     l2203 2854  
                   l2211 27E0                     l2027 2054                     l2019 202A  
                   l2051 2134                     l2043 20DA                     l2035 209A  
                   l2131 1B58                     l2115 1ABC                     l2123 1B1E  
                   l2107 1A32                     l2205 2856                     l2141 282E  
                   l2213 27E4                     l2301 0946                     l2029 2074  
                   l2053 2142                     l2061 21A8                     l2045 20FA  
                   l2037 20A8                     l2133 1B64                     l2125 1B30  
                   l2117 1ADA                     l2109 1A38                     l2221 2574  
                   l2071 2656                     l2151 283A                     l2143 2832  
                   l2207 27CE                     l2311 09B6                     l2303 094A  
                   l2231 0832                     l2223 0806                     l2063 21B8  
                   l2055 2170                     l2047 2118                     l2039 20C8  
                   l2135 1B6C                     l2127 1B40                     l2119 1AF4  
                   l2215 2538                     l2073 266E                     l2145 2834  
                   l2209 27D2                     l2401 0C44                     l2321 09E0  
                   l2313 09C2                     l2305 0974                     l2241 086C  
                   l2233 0842                     l2225 0812                     l2065 21D8  
                   l2057 2190                     l2049 2120                     l2129 1B46  
                   l2137 1B7C                     l2081 18E4                     l2161 1BEE  
                   l2153 1BA6                     l2217 2540                     l2075 2672  
                   l2147 2836                     l2411 0C96                     l2403 0C54  
                   l2331 0A36                     l2323 0A02                     l2315 09C6  
                   l2307 0990                     l2251 089A                     l2243 0872  
                   l2235 0852                     l2227 0820                     l2059 21A2  
                   l2091 1958                     l2083 190C                     l2171 1CB6  
                   l2163 1C12                     l2155 1BCA                     l2219 254E  
                   l2077 2688                     l2069 2646                     l2149 2838  
                   l2501 1580                     l2421 0CB4                     l2413 0C9C  
                   l2405 0C64                     l2341 0A70                     l2333 0A44  
                   l2325 0A12                     l2317 09D4                     l2309 09A0  
                   l2261 08CE                     l2253 089C                     l2245 0884  
                   l2237 0854                     l2229 0822                     l2093 1974  
                   l2085 192C                     l2173 1CDA                     l2181 1D08  
                   l2165 1C36                     l2157 1BD8                     l2431 24A8  
                   l2511 15AC                     l2503 1590                     l2415 0C9E  
                   l2407 0C84                     l2351 0ADC                     l2343 0A72  
                   l2335 0A52                     l2319 09D6                     l2271 090A  
                   l2255 08AC                     l2263 08D6                     l2247 0886  
                   l2239 085C                     l2095 1986                     l2087 193C  
                   l2079 18C4                     l2183 1D16                     l2175 1CE8  
                   l2167 1C7E                     l2159 1BEA                     l2425 287E  
                   l2433 24AC                     l2441 259A                     l2601 1852  
                   l2513 15BC                     l2521 15E6                     l2505 1596  
                   l2417 0CA4                     l2409 0C88                     l2361 0B34  
                   l2353 0ADE                     l2345 0A7C                     l2337 0A5E  
                   l2329 0A26                     l2281 091E                     l2273 090E  
                   l2265 08E6                     l2257 08BC                     l2249 088C  
                   l2097 1994                     l2089 193E                     l2177 1CFC  
                   l2427 2880                     l2435 2518                     l2195 284A  
                   l2451 25F0                     l2443 259C                     l2611 18B0  
                   l2603 1868                     l2531 1628                     l2523 15F6  
                   l2515 15CC                     l2507 159C                     l2419 0CB2  
                   l2371 0B62                     l2355 0AEE                     l2339 0A62  
                   l2347 0A82                     l2291 0932                     l2283 0922  
                   l2275 0912                     l2267 08F8                     l2259 08CC  
                   l2099 199A                     l2187 1D22                     l2437 252E  
                   l2429 2490                     l2197 284E                     l2453 27FE  
                   l2445 25A0                     l2613 18B6                     l2605 1882  
                   l2525 160C                     l2517 15DC                     l2509 15AA  
                   l2701 1374                     l2373 0B70                     l2365 0B48  
                   l2381 0B8E                     l2349 0AA8                     l2357 0AFE  
                   l2293 0936                     l2285 0926                     l2277 0916  
                   l2269 0906                     l2189 1D46                     l2461 2606  
                   l2199 2850                     l2455 280A                     l2471 275A  
                   l2447 25B8                     l2615 18B8                     l2607 189E  
                   l2551 16AA                     l2543 1660                     l2527 161C  
                   l2535 163C                     l2519 15DE                     l2711 13CA  
                   l2703 1382                     l2631 112C                     l2623 1100  
                   l2375 0B78                     l2367 0B52                     l2359 0B24  
                   l2383 0B9C                     l2295 093A                     l2287 092A  
                   l2279 091A                     l2463 260E                     l2457 280E  
                   l2481 2784                     l2473 275A                     l2449 25E4  
                   l2609 18A2                     l2561 16F0                     l2553 16B2  
                   l2545 167A                     l2537 164C                     l2529 1624  
                   l2713 13D8                     l2705 13A0                     l2641 1168  
                   l2633 113C                     l2625 110C                     l2393 0BEE  
                   l2385 0BA0                     l2377 0B7C                     l2369 0B60  
                   l2297 093E                     l2289 092E                     l2465 2616  
                   l2483 278A                     l2475 276A                     l2571 1748  
                   l2563 170E                     l2555 16C2                     l2547 168A  
                   l2539 164C                     l2491 1546                     l2723 1442  
                   l2731 148A                     l2715 13DC                     l2707 13AA  
                   l2651 119E                     l2643 116E                     l2635 114C  
                   l2627 111A                     l2395 0BFA                     l2387 0BAE  
                   l2379 0B8C                     l2299 0942                     l2811 1DD6  
                   l2803 1D5C                     l1931 2300                     l2467 2632  
                   l2459 25F4                     l2477 2772                     l2581 1786  
                   l2573 174E                     l2565 1710                     l2557 16D6  
                   l2549 169A                     l2493 1556                     l2485 152A  
                   l2741 14FE                     l2733 14A4                     l2725 144E  
                   l2717 13EA                     l2709 13B8                     l2653 11AE  
                   l2645 117C                     l2637 1152                     l2629 111C  
                   l2397 0C08                     l2389 0BC4                     l2821 1E30  
                   l2805 1D6C                     l1941 2382                     l1933 2312  
                   l2901 0F74                     l2479 277C                     l2591 17F0  
                   l2583 178A                     l2575 1758                     l2567 1720  
                   l2559 16E4                     l2495 1566                     l2487 1536  
                   l2743 150C                     l2735 14B8                     l2727 145C  
                   l2719 1418                     l2671 1230                     l2663 11F8  
                   l2655 11B4                     l2647 117E                     l2639 1162  
                   l2399 0C42                     l2831 1E94                     l2823 1E32  
                   l2815 1DEA                     l2807 1D7A                     l1935 2324  
                   l1951 26F6                     l2911 0FEC                     l2903 0F90  
                   l2593 17FC                     l2585 1798                     l2577 1766  
                   l2569 1732                     l2497 1576                     l2489 1544  
                   l2745 150E                     l2737 14D2                     l2729 1486  
                   l2681 127A                     l2673 1248                     l2665 1204  
                   l2657 11D4                     l2649 118E                     l2753 268E  
                   l2761 2210                     l2841 1EEC                     l2833 1EB2  
                   l2825 1E3E                     l2817 1DF2                     l2809 1DC0  
                   l1937 232E                     l1945 26D4                     l1953 2798  
                   l2921 106E                     l2913 1008                     l2905 0FA2  
                   l2595 180A                     l2587 17C6                     l2579 1778  
                   l2499 1578                     l2739 14EE                     l2747 1514  
                   l2691 12D0                     l2683 128A                     l2675 1254  
                   l2667 120E                     l2659 11E4                     l2755 269E  
                   l2771 2260                     l2843 1EFA                     l2835 1EB4  
                   l2827 1E7A                     l2819 1DFE                     l1939 234C  
                   l1947 26E0                     l1955 27A4                     l1971 2408  
                   l1963 23CA                     l2931 10CA                     l2923 1080  
                   l2915 1024                     l2907 0FBE                     l2851 0CCA  
                   l2597 1834                     l2749 1518                     l2693 12EC  
                   l2685 1296                     l2677 1260                     l2669 1224  
                   l2781 228A                     l2773 2264                     l2765 2224  
                   l2845 1EFC                     l2837 1EB8                     l2829 1E86  
                   l1949 26F2                     l1957 27A8                     l1981 2476  
                   l1973 241C                     l1965 23DA                     l2933 10E6  
                   l2925 109C                     l2917 1036                     l2909 0FDA  
                   l2861 0D00                     l2853 0CCE                     ?_pad 0011  
                   l2599 1838                     l2695 12F8                     l2687 12A6  
                   l2679 126E                     l2791 22B2                     l2783 2294  
                   l2775 2272                     l2767 224E                     l2759 21FA  
                   l2839 1EDC                     l1991 1F12                     l1959 27C0  
                   l1975 2430                     l1967 23EE                     l2927 10B8  
                   l2919 1052                     l2871 0D18                     l2863 0D08  
                   l2855 0CE0                     l2697 1314                     l2689 12C0  
                   l2793 22BE                     l2785 229E                     l2769 2250  
                   l1993 1F20                     l1985 2718                     l1977 2434  
                   l1969 23FC                     l2929 10CA                     l2881 0D4C  
                   l2873 0D28                     l2865 0D08                     l2857 0CF0  
                   l2849 0CC6                     l2699 133E                     l2795 22CE  
                   l1995 1F40                     l1987 2732                     l1979 2462  
                   l2891 0EBE                     l2883 0D82                     l2875 0D38  
                   l2867 0D08                     l2859 0D00                     l2797 22DE  
                   l1997 1F44                     l1989 1F0E                     l2893 0ECE  
                   l2885 0DB6                     l2877 0D38                     l2869 0D18  
                   l2799 22EE                     l1999 1F52                     l2895 0F02  
                   l2887 0DEA                     l2879 0D38                     l2897 0F60  
                   l2889 0E42                     l2899 0F68                     _ADON 007E10  
                   STR_1 0801                     STR_2 0801                     STR_3 0801  
                   STR_4 0801                     STR_5 0801                     STR_6 0801  
                   u2000 1C36                     u2001 1C32                     u2010 1CDA  
                   u2011 1CD6                     u2020 27FC                     u2100 08BC  
                   u2021 27F8                     u2101 08B8                     u2110 08F8  
                   u2030 2590                     u2111 08F4                     u2031 258C  
                   u2200 0A12                     u2120 0906                     u2040 0820  
                   u3000 1D6C                     u2201 0A0E                     u2121 0902  
                   u2041 081C                     u3001 1D68                     u2210 0A44  
                   u2130 0974                     u2050 0832                     u3010 1D7A  
                   u2211 0A40                     u2131 0970                     u2051 082E  
                   u3011 1D76                     u2300 0B8C                     u2220 0A52  
                   u2140 098C                     u2060 0842                     u3020 1DD6  
                   u3100 0F60                     u2301 0B88                     u2221 0A4E  
                   u2141 0986                     u2061 083E                     u3021 1DD2  
                   u3101 0F5C                     u2310 0B9C                     u2230 0A70  
                   u2150 098E                     u2070 0884                     u3030 1E2C  
                   _LATB 000F8A                     u2311 0B98                     u2231 0A6C  
                   u2071 0880                     u3031 1E28                     u2400 0C84  
                   u2320 0BAE                     u2240 0AA8                     u2160 09B6  
                   u2080 089A                     u3040 1E76                     u1600 2382  
                   u2401 0C80                     u2321 0BAA                     u2241 0AA4  
                   u2161 09B2                     u2081 0896                     u3041 1E72  
                   u1601 237E                     u2410 0C96                     u2330 0BC4  
                   u2250 0AEE                     u2170 09D4                     u2090 08AC  
                   u3050 1E94                     u1610 2716                     u2411 0C92  
                   u2331 0BC0                     u2251 0AEA                     u2171 09D0  
                   u2091 08A8                     u3051 1E90                     u1611 2712  
                   u2500 276A                     u2420 0CB2                     u2340 0BDA  
                   u2260 0B24                     u2180 09F4                     u3060 1EA4  
                   u1620 27C0                     u2501 2766                     u2421 0CAE  
                   u2341 0BD6                     u2261 0B20                     u2181 09F0  
                   u3061 1EA0                     u1701 1F7C                     u1621 27BC  
                   u2430 24C6                     u2510 1544                     u2350 0BEE  
                   u2270 0B34                     u2190 0A02                     u3070 1EB2  
                   u1710 1FA0                     u1630 23DA                     u2431 24BE  
                   u2511 1540                     u2351 0BEA                     u2271 0B30  
                   u2191 09FE                     u3071 1EAE                     u1711 1F9C  
                   u1631 23D6                     u2600 16E4                     u2520 1556  
                   u2360 0C08                     u2280 0B60                     u3080 1EEC  
                   u1720 1FCA                     u1800 21B8                     u1640 23FC  
                   u2601 16E0                     u2521 1552                     u2361 0C04  
                   u2281 0B5C                     u3081 1EE8                     u1721 1FC6  
                   u1801 21B4                     u1641 23F8                     u1810 266C  
                   u2610 170E                     u2530 1566                     u2370 0C42  
                   u2290 0B70                     u3090 1EFA                     u1730 200A  
                   u1570 2312                     u1650 2452                     u1811 2668  
                   u2611 170A                     u2531 1562                     u2371 0C3E  
                   u2291 0B6C                     u3091 1EF6                     u1731 2006  
                   u1571 230E                     u1651 244E                     u2460 24EE  
                   u1820 2688                     u2700 180A                     u2620 1732  
                   u2540 15AA                     u2380 0C54                     u1740 2054  
                   u1580 2324                     u1660 2462                     u1900 1ABC  
                   u2461 24E6                     u1821 2684                     u2701 1806  
                   u2621 172E                     u2541 15A6                     u2381 0C50  
                   u1741 2050                     u1581 2320                     u1661 245E  
                   u1901 1AB8                     u2454 24D6                     u2710 1852  
                   u2630 1748                     u2550 15BC                     u2390 0C64  
                   u1750 20A8                     u1670 2732                     u1590 234C  
                   u1910 1ADA                     u1830 18F4                     u2455 24D2  
                   u2711 184E                     u2631 1744                     u2551 15B8  
                   u2391 0C60                     u1751 20A4                     u1671 272E  
                   u1591 2348                     u1911 1AD6                     u1831 18EE  
                   u2448 24C8                     u2720 1882                     u2640 1766  
                   u2560 15CC                     u2800 11D4                     u1680 1F20  
                   u1760 20DA                     u1920 1AF4                     u1840 18F6  
                   u2721 187E                     u2641 1762                     u2561 15C8  
                   u2801 11D0                     u1681 1F1C                     u1761 20D6  
                   u1921 1AF0                     u2490 2518                     u2730 18B0  
                   u2650 1786                     u2570 160C                     u2810 11E4  
                   u1690 1F52                     u1770 2118                     u1930 1B0E  
                   u1850 190C                     u2491 2514                     u2731 18AC  
                   u2651 1782                     u2571 1608                     u2811 11E0  
                   u1691 1F4E                     u1771 2114                     u1931 1B0A  
                   u1851 1908                     u2484 24FE                     u2660 1798  
                   u2580 164C                     u2900 14A4                     u2820 135E  
                   u2740 111A                     u1780 2142                     u1940 1B1E  
                   u1860 193C                     u2485 24FA                     u2661 1794  
                   u2581 1648                     u2901 14A0                     u2741 1116  
                   u1781 213E                     u1941 1B1A                     u1861 1938  
                   u2478 24F0                     u2670 17C6                     u2590 16C2  
                   u2910 14D2                     u2830 13B8                     u2750 112C  
                   u1790 2170                     u1950 1B30                     u1870 1958  
                   u2671 17C2                     u2591 16BE                     u2911 14CE  
                   u2831 13B4                     u2751 1128                     u1791 216C  
                   u1951 1B2C                     u1871 1954                     u2680 17DC  
                   u2920 150C                     u2840 13D8                     u2760 113C  
                   u1960 1B40                     u1880 1986                     u2681 17D8  
                   u2921 1508                     u2841 13D4                     u2825 1354  
                   u2761 1138                     u1961 1B3C                     u1881 1982  
                   u2690 17F0                     u2850 13EA                     u2770 117C  
                   u2930 2210                     u1970 1B58                     u1890 1994  
                   u2691 17EC                     u2851 13E6                     u2771 1178  
                   u2931 220C                     u1971 1B54                     u1891 1990  
                   u2860 1418                     u2780 118E                     u2940 2244  
                   u1980 1BCA                     u2861 1414                     u2781 118A  
                   u1981 1BC6                     u2870 142E                     u2790 119E  
                   u2950 2272                     u1990 1C12                     u2871 142A  
                   u2791 119A                     u2951 226E                     u1991 1C0E  
                   u2880 1442                     u2960 2286                     u2881 143E  
                   u2961 2282                     u2945 223A                     u2890 145C  
                   u2970 22AE                     u2891 1458                     u2971 22AA  
                   u2980 22CE                     u2981 22CA                     u2990 22DE  
                   u2991 22DA                     _TMR0 000FD6                     _TMR2 000FCC  
         main@Derivativo 00AE                     abs@a 0013                     _dbuf 00C6  
                   _main 0CC6                     _dtoa 18C4                     _prec 00C2  
                   _nout 00BE                     pad@i 0018                     pad@p 0015  
                   fsr1h 000FE2                     fsr2h 000FDA                     indf2 000FDF  
                   fsr1l 000FE1                     pad@w 001A                     fsr2l 000FD9  
       __end_of_ADC_Init 2892         __end_of_ADC_Read 2538                     prodh 000FF4  
                   prodl 000FF3                     start 0000          __end_of_MSdelay 268E  
          __CFG_IESO$OFF 000000          ___fldiv@new_exp 0043            _LCD_String_xy 2758  
          __CFG_MCLRE$ON 000000             ___param_bank 000000                    ??_PWM 0003  
                  ??_abs 0015                    ??_pad 0017         __end_of_LCD_Char 2848  
       __end_of_LCD_Init 282C            __CFG_PLLDIV$5 000000           __CFG_CCP2MX$ON 000000  
          ___fltol@sign1 0032          __end_of___aodiv 2096          __end_of___fladd 0CC6  
                  ?_main 0001                    ?_dtoa 001C          __end_of___aomod 21FA  
        __end_of___fldiv 18C4          __end_of___flmul 152A          __end_of___flsub 26D4  
        __end_of___fltol 2300                    _T0CON 000FD5                    _T2CON 000FCA  
                  _LATD0 007C60                    _LATD1 007C61             vfpfcnvrt@fmt 0042  
          __CFG_USBDIV$1 000000                    _TRISA 000F92                    _TRISB 000F93  
                  _TRISD 000F95            __CFG_PWRT$OFF 000000            __CFG_WRT0$OFF 000000  
          __CFG_WRT1$OFF 000000            __CFG_WRT2$OFF 000000            __CFG_WRT3$OFF 000000  
         __CFG_EBTR0$OFF 000000           __CFG_FCMEN$OFF 000000           __CFG_EBTR1$OFF 000000  
         __CFG_EBTR2$OFF 000000           __CFG_EBTR3$OFF 000000            __CFG_WRTB$OFF 000000  
          __CFG_WRTC$OFF 000000            __CFG_WRTD$OFF 000000           __CFG_EBTRB$OFF 000000  
                  _flags 00C4                    _fputc 2300                    _fputs 26D4  
                  pad@fp 0011                    _width 00C0                    main@T 00A6  
                  _putch 2892                    dtoa@d 001E                    dtoa@i 003E  
                  dtoa@n 0036                    dtoa@p 0030                    dtoa@s 0034  
                  dtoa@w 0032                    tablat 000FF5                    status 000FD8  
    __size_of_LCD_String 0030          __end_of_sprintf 2646           __CFG_ICPRT$OFF 000000  
         __CFG_PBADEN$ON 000000           ?_LCD_String_xy 0008          __initialization 2864  
           __end_of_main 1100             __end_of_dtoa 1BA6                   ??_main 005E  
                 ??_dtoa 0026            __activetblptr 000001                   _ADCON0 000FC2  
                 _ADCON1 000FC1                   _ADCON2 000FC0                   ?_fputc 0001  
                 ?_fputs 000A                   _ADRESH 000FC4                   _ADRESL 000FC3  
                 _CCPR1L 000FBE                   ?_putch 0001         LCD_String_xy@msg 0009  
       LCD_String_xy@pos 0008         LCD_String_xy@row 000B                ??_MSdelay 0003  
                 _TMR0IF 007F92                   _TMR2ON 007E52                   _TRISC2 007CA2  
       __end_of___xxtofl 1F0E           __CFG_XINST$OFF 000000             vfprintf@cfmt 0056  
              ??___aodiv 0011                ??___fladd 0022                ??___aomod 0011  
              ??___fldiv 003A           __CFG_STVREN$ON 000000                ??___flmul 0009  
              ??___flsub 0032                ??___fltol 002E          ADC_Read@channel 0001  
        ADC_Read@digital 0007                   clear_0 286A                   pad@buf 0013  
                 main@Kd 008C                   main@Ki 0088                   main@Kp 0084  
                 main@pE 00A0     __size_of_LCD_Command 001C                   dtoa@fp 001C  
                 _strlen 2798                   fputc@c 0001                   fputs@c 000E  
                 fputs@i 000F                   fputs@s 000A                ?_ADC_Init 0001  
              ?_ADC_Read 0001             __mediumconst 0000                   tblptrh 000FF7  
                 tblptrl 000FF6                   tblptru 000FF8                   putch@c 0001  
       __end_of_vfprintf 259A                ??_sprintf 005E             ___xxtofl@arg 000B  
           ___xxtofl@exp 000A             ___xxtofl@val 0001                ?_LCD_Char 0001  
             __accesstop 0060  __end_of__initialization 2870                ?_LCD_Init 0001  
        ??_LCD_String_xy 000B            ___rparam_used 000001               ___fltol@f1 002A  
         __pcstackCOMRAM 0001            __end_of_fputc 23CA            __end_of_fputs 2718  
          __end_of_putch 2894             ??_LCD_String 0008               ??_ADC_Init 0001  
             ??_ADC_Read 0003                  ??_fputc 0005                  ??_fputs 000E  
                ??_putch 0001               __pbssBANK0 00BE               ??_LCD_Char 0005  
             ??_LCD_Init 0006       __end_of_LCD_String 27FE                  _CCP1CON 000FBD  
                ?_strlen 0001                ?___xxtofl 0001       __size_of_vfpfcnvrt 01B4  
                _MSdelay 2646          __CFG_VREGEN$OFF 000000            LCD_String@msg 0006  
              PWM@output 0001                  __Hparam 0000                  __Lparam 0000  
                ___aodiv 1F0E                  ___fladd 0806                  ___aomod 2096  
                ___fldiv 152A                  ___flmul 1100                  ___flsub 268E  
                ___fltol 21FA                ?_vfprintf 0050             __psmallconst 0800  
                __pcinit 2864                  __ramtop 0800                  __ptext0 0CC6  
                __ptext1 25F4                  __ptext2 2538                  __ptext3 1BA6  
                __ptext4 18C4                  __ptext5 23CA                  __ptext6 2798  
                __ptext7 26D4                  __ptext8 2300                  __ptext9 2892  
        __size_of_strlen 0036             __size_of_PWM 005A             __size_of_abs 0040  
           __size_of_pad 00C6               ??___xxtofl 0005                  _sprintf 25F4  
                main@str 0070     end_of_initialization 2870                  fputc@fp 0003  
         LCD_Command@cmd 0005                  fputs@fp 000C        __end_of_vfpfcnvrt 1D5A  
                postdec2 000FDD                  postinc0 000FEE                  postinc1 000FE6  
                postinc2 000FDE               ??_vfprintf 0056                  strlen@a 0003  
                strlen@s 0001              ___fladd@grs 0029            ___xxtofl@sign 0009  
            ___fldiv@grs 0045              ___fldiv@rem 003E        __size_of_ADC_Init 0014  
      __size_of_ADC_Read 00A8              ___flmul@grs 000E               main@offset 0098  
      __size_of_LCD_Char 001C        __size_of_LCD_Init 002E        main@PProporcional 009A  
          ??_LCD_Command 0005              vfpfcnvrt@ap 0044              vfpfcnvrt@fp 0040  
            vfpfcnvrt@ll 0048           __end_of_strlen 27CE      start_initialization 2864  
            __end_of_PWM 25F4              __end_of_abs 2758              __end_of_pad 2490  
  __end_of_LCD_String_xy 2798              vfprintf@fmt 0052         __CFG_LPT1OSC$OFF 000000  
               ??_strlen 0003                ___fladd@a 001E                ___fladd@b 001A  
              ___fldiv@a 0036                ___fldiv@b 0032      __end_of_LCD_Command 2864  
              ___flmul@a 0005                ___flmul@b 0001                ___flsub@a 002E  
              ___flsub@b 002A            __pcstackBANK0 0060         ___aodiv@dividend 0001  
      __size_of___xxtofl 01B4                 ?_MSdelay 0001                 ?___aodiv 0001  
               ?___fladd 001A                 ?___aomod 0001                 ?___fldiv 0032  
       ___aodiv@quotient 0013                 ?___flmul 0001                 ?___flsub 002A  
               ?___fltol 002A        __size_of_vfprintf 0062              __smallconst 0800  
               _ADC_Init 287E                 _ADC_Read 2490    LCD_String_xy@location 000C  
               ?_sprintf 0058           __size_of_fputc 00CA           __size_of_fputs 0044  
         __size_of_putch 0002                 MSdelay@i 0003                 _LCD_Char 282C  
               _LCD_Init 27FE         __CFG_WDTPS$32768 000000              _LCD_Command 2848  
              _vfpfcnvrt 1BA6               _ADCON0bits 000FC2               _ADCON2bits 000FC0  
              main@Error 00BA                main@input 00B8         __size_of_MSdelay 0048  
               __Hrparam 0000               vfprintf@ap 0054                 __Lrparam 0000  
             vfprintf@fp 0050             __Lsmallconst 0800         __size_of___aodiv 0188  
       __size_of___fladd 04C0         __size_of___aomod 0164         __size_of___fldiv 039A  
       __size_of___flmul 042A         __size_of___flsub 0046         __size_of___fltol 0106  
       main@Proporcional 00AA               ?_vfpfcnvrt 0040          ___aodiv@divisor 0009  
        ___aodiv@counter 0011               sprintf@fmt 005A                 ___xxtofl 1D5A  
               _main$994 0090                 _main$995 0094                 _dtoa$288 002E  
               __ptext10 2718                 __ptext11 2096                 __ptext20 2758  
               __ptext12 1F0E                 __ptext21 27CE                 __ptext13 1D5A  
               __ptext22 282C                 __ptext14 21FA                 __ptext23 27FE  
               __ptext15 268E                 __ptext24 2848                 __ptext16 0806  
               __ptext25 2646                 __ptext17 1100                 __ptext26 2490  
               __ptext18 152A                 __ptext27 287E                 __ptext19 259A  
       __size_of_sprintf 0052            __size_of_main 043A            __size_of_dtoa 02E2  
             MSdelay@val 0001                 _vfprintf 2538               _LCD_String 27CE  
       ___aomod@dividend 0001    __CFG_CPUDIV$OSC1_PLL2 000000                sprintf@ap 0062  
        ___aomod@divisor 0009              ??_vfpfcnvrt 0046          ___aomod@counter 0011  
               sprintf@f 0064                 sprintf@s 0058   __size_of_LCD_String_xy 0040  
          ___fladd@signs 0026          main@PDerivativo 009E             ___aodiv@sign 0012  
     __CFG_FOSC$HSPLL_HS 000000             ___fladd@aexp 0027             ___fladd@bexp 0028  
           ___aomod@sign 0012  
